ARM GAS  C:\Users\Andre\AppData\Local\Temp\ccQSUiO1.s 			page 1


   1              		.cpu cortex-m3
   2              		.eabi_attribute 20, 1
   3              		.eabi_attribute 21, 1
   4              		.eabi_attribute 23, 3
   5              		.eabi_attribute 24, 1
   6              		.eabi_attribute 25, 1
   7              		.eabi_attribute 26, 1
   8              		.eabi_attribute 30, 1
   9              		.eabi_attribute 34, 1
  10              		.eabi_attribute 18, 4
  11              		.file	"main.c"
  12              		.text
  13              	.Ltext0:
  14              		.cfi_sections	.debug_frame
  15              		.section	.text.Error_Handler,"ax",%progbits
  16              		.align	1
  17              		.global	Error_Handler
  18              		.arch armv7-m
  19              		.syntax unified
  20              		.thumb
  21              		.thumb_func
  22              		.fpu softvfp
  24              	Error_Handler:
  25              	.LFB67:
  26              		.file 1 "Src/main.c"
   1:Src/main.c    **** /* USER CODE BEGIN Header */
   2:Src/main.c    **** /**
   3:Src/main.c    ****   ******************************************************************************
   4:Src/main.c    ****   * @file           : main.c
   5:Src/main.c    ****   * @brief          : Main program body
   6:Src/main.c    ****   ******************************************************************************
   7:Src/main.c    ****   * @attention
   8:Src/main.c    ****   *
   9:Src/main.c    ****   * <h2><center>&copy; Copyright (c) 2021 STMicroelectronics.
  10:Src/main.c    ****   * All rights reserved.</center></h2>
  11:Src/main.c    ****   *
  12:Src/main.c    ****   * This software component is licensed by ST under BSD 3-Clause license,
  13:Src/main.c    ****   * the "License"; You may not use this file except in compliance with the
  14:Src/main.c    ****   * License. You may obtain a copy of the License at:
  15:Src/main.c    ****   *                        opensource.org/licenses/BSD-3-Clause
  16:Src/main.c    ****   *
  17:Src/main.c    ****   ******************************************************************************
  18:Src/main.c    ****   */
  19:Src/main.c    **** /* USER CODE END Header */
  20:Src/main.c    **** /* Includes ------------------------------------------------------------------*/
  21:Src/main.c    **** #include "main.h"
  22:Src/main.c    **** /* Private includes ----------------------------------------------------------*/
  23:Src/main.c    **** /* USER CODE BEGIN Includes */
  24:Src/main.c    **** #include "mb.h"
  25:Src/main.c    **** #include "mbport.h"
  26:Src/main.c    **** #include "user_mb_app.h"
  27:Src/main.c    **** 
  28:Src/main.c    **** #include "FunctionsTxRx.h"
  29:Src/main.c    **** #include "Flash.h"
  30:Src/main.c    **** #include "mode.h"
  31:Src/main.c    **** #include "measuring_vd_vz.h"
  32:Src/main.c    **** /* USER CODE END Includes */
ARM GAS  C:\Users\Andre\AppData\Local\Temp\ccQSUiO1.s 			page 2


  33:Src/main.c    **** 
  34:Src/main.c    **** /* Private typedef -----------------------------------------------------------*/
  35:Src/main.c    **** /* USER CODE BEGIN PTD */
  36:Src/main.c    **** extern uint16_t usSRegInBuf[];
  37:Src/main.c    **** extern uint16_t usSRegHoldBuf[];
  38:Src/main.c    **** 
  39:Src/main.c    **** int operatingMode, Start, RecordFlash = 0;
  40:Src/main.c    **** float add1 = 0;
  41:Src/main.c    **** /* USER CODE END PTD */
  42:Src/main.c    **** 
  43:Src/main.c    **** /* Private function prototypes -----------------------------------------------*/
  44:Src/main.c    **** void SystemClock_Config(void);
  45:Src/main.c    **** /* USER CODE BEGIN PFP */
  46:Src/main.c    **** 
  47:Src/main.c    **** /* USER CODE END PFP */
  48:Src/main.c    **** 
  49:Src/main.c    **** /* Private user code ---------------------------------------------------------*/
  50:Src/main.c    **** /* USER CODE BEGIN 0 */
  51:Src/main.c    **** 
  52:Src/main.c    **** /* USER CODE END 0 */
  53:Src/main.c    **** 
  54:Src/main.c    **** /**
  55:Src/main.c    ****   * @brief  The application entry point.
  56:Src/main.c    ****   * @retval int
  57:Src/main.c    ****   */
  58:Src/main.c    **** int main(void)
  59:Src/main.c    **** {
  60:Src/main.c    ****   /* USER CODE BEGIN 1 */
  61:Src/main.c    ****   /* USER CODE END 1 */
  62:Src/main.c    **** 
  63:Src/main.c    ****   /* MCU Configuration--------------------------------------------------------*/
  64:Src/main.c    **** 
  65:Src/main.c    ****   /* Reset of all peripherals, Initializes the Flash interface and the Systick. */
  66:Src/main.c    ****   HAL_Init();
  67:Src/main.c    **** 
  68:Src/main.c    ****   /* USER CODE BEGIN Init */
  69:Src/main.c    ****   /* USER CODE END Init */
  70:Src/main.c    **** 
  71:Src/main.c    ****   /* Configure the system clock */
  72:Src/main.c    ****   SystemClock_Config();
  73:Src/main.c    **** 
  74:Src/main.c    ****   /* USER CODE BEGIN SysInit */
  75:Src/main.c    ****   /* USER CODE END SysInit */
  76:Src/main.c    **** 
  77:Src/main.c    ****   /* Initialize all configured peripherals */
  78:Src/main.c    ****   /* USER CODE BEGIN 2 */
  79:Src/main.c    ****   MX_GPIO_Init();
  80:Src/main.c    ****   MX_SPI2_Init();
  81:Src/main.c    ****   MX_TIM1_Init();
  82:Src/main.c    ****   MX_TIM4_Init();
  83:Src/main.c    ****   MX_USART3_UART_Init();
  84:Src/main.c    ****   MX_TIM2_Init();
  85:Src/main.c    ****   MX_TIM3_Init();
  86:Src/main.c    **** 
  87:Src/main.c    ****   ISTD_ON;	ISTZ_ON;
  88:Src/main.c    ****   
  89:Src/main.c    **** 	eMBInit(MB_RTU, 2, &huart3, 115200, &htim4);
ARM GAS  C:\Users\Andre\AppData\Local\Temp\ccQSUiO1.s 			page 3


  90:Src/main.c    **** 	eMBEnable();
  91:Src/main.c    **** 
  92:Src/main.c    ****   /* USER CODE END 2 */
  93:Src/main.c    **** 
  94:Src/main.c    ****   /* Infinite loop */
  95:Src/main.c    ****   /* USER CODE BEGIN WHILE */
  96:Src/main.c    ****   while (1) {
  97:Src/main.c    ****     operatingMode = usSRegHoldBuf[0];
  98:Src/main.c    **** 	  Start = usSRegHoldBuf[1];
  99:Src/main.c    ****     	  
 100:Src/main.c    **** 	  switch (operatingMode) {
 101:Src/main.c    **** 		  case 3:
 102:Src/main.c    **** 		  WaitingMode();
 103:Src/main.c    **** 		  break;
 104:Src/main.c    **** 		  
 105:Src/main.c    **** 		  case 1:
 106:Src/main.c    **** 		  LED_Cathode_VZ_OFF; LED_VZ_OFF;
 107:Src/main.c    ****       LED_Cathode_VD_ON;  LED_VD_ON;          //Светодиод режима диода //Све
 108:Src/main.c    **** 			  
 109:Src/main.c    **** 			  if (Start == 1) {
 110:Src/main.c    ****           StaticMeasurementMode_VD(); 
 111:Src/main.c    **** 			  }
 112:Src/main.c    **** 			  if (Start == 2) {
 113:Src/main.c    **** 				  modeVD_pulse();
 114:Src/main.c    **** 			  }
 115:Src/main.c    **** 		  break;
 116:Src/main.c    **** 		  
 117:Src/main.c    **** 		  case 2:
 118:Src/main.c    ****       LED_Cathode_VD_OFF; LED_VD_OFF;
 119:Src/main.c    ****       LED_Cathode_VZ_ON;  LED_VZ_ON;   //Светодиод катода VZ //Светодиод р
 120:Src/main.c    **** 			  
 121:Src/main.c    **** 			  if (Start == 3) {
 122:Src/main.c    **** 				  StaticMeasurementMode_VZ();
 123:Src/main.c    **** 			  }
 124:Src/main.c    **** 			  if (Start == 4) {
 125:Src/main.c    **** 				  modeVZ_pulse();
 126:Src/main.c    **** 			  } 
 127:Src/main.c    **** 		  break;
 128:Src/main.c    **** 		  
 129:Src/main.c    **** 		  case 5:
 130:Src/main.c    **** 		  WaitingMode();
 131:Src/main.c    **** 		  diagnostic();
 132:Src/main.c    **** 		  usSRegHoldBuf[0] = 0;
 133:Src/main.c    **** 		  break;	
 134:Src/main.c    **** 
 135:Src/main.c    ****       case 6:
 136:Src/main.c    ****       add1 = dataReception (4);
 137:Src/main.c    ****       dataTransfer(12, add1);
 138:Src/main.c    **** 
 139:Src/main.c    ****       RecordFlash = usSRegHoldBuf[6];
 140:Src/main.c    ****       if (RecordFlash == 26) {
 141:Src/main.c    ****         //WritingToFlash();	
 142:Src/main.c    ****        } 
 143:Src/main.c    ****       break;		  
 144:Src/main.c    **** 	  }
 145:Src/main.c    **** 	  HAL_Delay(20);
 146:Src/main.c    **** 	  eMBPoll();
ARM GAS  C:\Users\Andre\AppData\Local\Temp\ccQSUiO1.s 			page 4


 147:Src/main.c    ****     /* USER CODE END WHILE */
 148:Src/main.c    ****     /* USER CODE BEGIN 3 */
 149:Src/main.c    ****   }
 150:Src/main.c    ****   /* USER CODE END 3 */
 151:Src/main.c    **** }
 152:Src/main.c    **** 
 153:Src/main.c    **** /**
 154:Src/main.c    ****   * @brief System Clock Configuration
 155:Src/main.c    ****   * @retval 
 156:Src/main.c    ****   */
 157:Src/main.c    **** void SystemClock_Config(void)
 158:Src/main.c    **** {
 159:Src/main.c    ****   RCC_OscInitTypeDef RCC_OscInitStruct = {0};
 160:Src/main.c    ****   RCC_ClkInitTypeDef RCC_ClkInitStruct = {0};
 161:Src/main.c    **** 
 162:Src/main.c    ****   /** Initializes the RCC Oscillators according to the specified parameters
 163:Src/main.c    ****   * in the RCC_OscInitTypeDef structure.
 164:Src/main.c    ****   */
 165:Src/main.c    ****   RCC_OscInitStruct.OscillatorType = RCC_OSCILLATORTYPE_HSE;
 166:Src/main.c    ****   RCC_OscInitStruct.HSEState = RCC_HSE_ON;
 167:Src/main.c    ****   RCC_OscInitStruct.HSEPredivValue = RCC_HSE_PREDIV_DIV1;
 168:Src/main.c    ****   RCC_OscInitStruct.HSIState = RCC_HSI_ON;
 169:Src/main.c    ****   RCC_OscInitStruct.PLL.PLLState = RCC_PLL_ON;
 170:Src/main.c    ****   RCC_OscInitStruct.PLL.PLLSource = RCC_PLLSOURCE_HSE;
 171:Src/main.c    ****   RCC_OscInitStruct.PLL.PLLMUL = RCC_PLL_MUL3;
 172:Src/main.c    ****   if (HAL_RCC_OscConfig(&RCC_OscInitStruct) != HAL_OK)
 173:Src/main.c    ****   {
 174:Src/main.c    ****     Error_Handler();
 175:Src/main.c    ****   }
 176:Src/main.c    ****   /** Initializes the CPU, AHB and APB buses clocks
 177:Src/main.c    ****   */
 178:Src/main.c    ****   RCC_ClkInitStruct.ClockType = RCC_CLOCKTYPE_HCLK|RCC_CLOCKTYPE_SYSCLK
 179:Src/main.c    ****                               |RCC_CLOCKTYPE_PCLK1|RCC_CLOCKTYPE_PCLK2;
 180:Src/main.c    ****   RCC_ClkInitStruct.SYSCLKSource = RCC_SYSCLKSOURCE_PLLCLK;
 181:Src/main.c    ****   RCC_ClkInitStruct.AHBCLKDivider = RCC_SYSCLK_DIV2;
 182:Src/main.c    ****   RCC_ClkInitStruct.APB1CLKDivider = RCC_HCLK_DIV1;
 183:Src/main.c    ****   RCC_ClkInitStruct.APB2CLKDivider = RCC_HCLK_DIV1;
 184:Src/main.c    **** 
 185:Src/main.c    ****   if (HAL_RCC_ClockConfig(&RCC_ClkInitStruct, FLASH_LATENCY_1) != HAL_OK)
 186:Src/main.c    ****   {
 187:Src/main.c    ****     Error_Handler();
 188:Src/main.c    ****   }
 189:Src/main.c    **** }
 190:Src/main.c    **** 
 191:Src/main.c    **** /* USER CODE BEGIN 4 */
 192:Src/main.c    **** 
 193:Src/main.c    **** /* USER CODE END 4 */
 194:Src/main.c    **** 
 195:Src/main.c    **** /**
 196:Src/main.c    ****   * @brief  This function is executed in case of error occurrence.
 197:Src/main.c    ****   * @retval None
 198:Src/main.c    ****   */
 199:Src/main.c    **** void Error_Handler(void)
 200:Src/main.c    **** {
  27              		.loc 1 200 1 view -0
  28              		.cfi_startproc
  29              		@ Volatile: function does not return.
ARM GAS  C:\Users\Andre\AppData\Local\Temp\ccQSUiO1.s 			page 5


  30              		@ args = 0, pretend = 0, frame = 0
  31              		@ frame_needed = 0, uses_anonymous_args = 0
  32              		@ link register save eliminated.
 201:Src/main.c    ****   /* USER CODE BEGIN Error_Handler_Debug */
 202:Src/main.c    ****   /* User can add his own implementation to report the HAL error return state */
 203:Src/main.c    ****   __disable_irq();
  33              		.loc 1 203 3 view .LVU1
  34              	.LBB4:
  35              	.LBI4:
  36              		.file 2 "Drivers/CMSIS/Include/cmsis_gcc.h"
   1:Drivers/CMSIS/Include/cmsis_gcc.h **** /**************************************************************************//**
   2:Drivers/CMSIS/Include/cmsis_gcc.h ****  * @file     cmsis_gcc.h
   3:Drivers/CMSIS/Include/cmsis_gcc.h ****  * @brief    CMSIS compiler GCC header file
   4:Drivers/CMSIS/Include/cmsis_gcc.h ****  * @version  V5.0.4
   5:Drivers/CMSIS/Include/cmsis_gcc.h ****  * @date     09. April 2018
   6:Drivers/CMSIS/Include/cmsis_gcc.h ****  ******************************************************************************/
   7:Drivers/CMSIS/Include/cmsis_gcc.h **** /*
   8:Drivers/CMSIS/Include/cmsis_gcc.h ****  * Copyright (c) 2009-2018 Arm Limited. All rights reserved.
   9:Drivers/CMSIS/Include/cmsis_gcc.h ****  *
  10:Drivers/CMSIS/Include/cmsis_gcc.h ****  * SPDX-License-Identifier: Apache-2.0
  11:Drivers/CMSIS/Include/cmsis_gcc.h ****  *
  12:Drivers/CMSIS/Include/cmsis_gcc.h ****  * Licensed under the Apache License, Version 2.0 (the License); you may
  13:Drivers/CMSIS/Include/cmsis_gcc.h ****  * not use this file except in compliance with the License.
  14:Drivers/CMSIS/Include/cmsis_gcc.h ****  * You may obtain a copy of the License at
  15:Drivers/CMSIS/Include/cmsis_gcc.h ****  *
  16:Drivers/CMSIS/Include/cmsis_gcc.h ****  * www.apache.org/licenses/LICENSE-2.0
  17:Drivers/CMSIS/Include/cmsis_gcc.h ****  *
  18:Drivers/CMSIS/Include/cmsis_gcc.h ****  * Unless required by applicable law or agreed to in writing, software
  19:Drivers/CMSIS/Include/cmsis_gcc.h ****  * distributed under the License is distributed on an AS IS BASIS, WITHOUT
  20:Drivers/CMSIS/Include/cmsis_gcc.h ****  * WARRANTIES OR CONDITIONS OF ANY KIND, either express or implied.
  21:Drivers/CMSIS/Include/cmsis_gcc.h ****  * See the License for the specific language governing permissions and
  22:Drivers/CMSIS/Include/cmsis_gcc.h ****  * limitations under the License.
  23:Drivers/CMSIS/Include/cmsis_gcc.h ****  */
  24:Drivers/CMSIS/Include/cmsis_gcc.h **** 
  25:Drivers/CMSIS/Include/cmsis_gcc.h **** #ifndef __CMSIS_GCC_H
  26:Drivers/CMSIS/Include/cmsis_gcc.h **** #define __CMSIS_GCC_H
  27:Drivers/CMSIS/Include/cmsis_gcc.h **** 
  28:Drivers/CMSIS/Include/cmsis_gcc.h **** /* ignore some GCC warnings */
  29:Drivers/CMSIS/Include/cmsis_gcc.h **** #pragma GCC diagnostic push
  30:Drivers/CMSIS/Include/cmsis_gcc.h **** #pragma GCC diagnostic ignored "-Wsign-conversion"
  31:Drivers/CMSIS/Include/cmsis_gcc.h **** #pragma GCC diagnostic ignored "-Wconversion"
  32:Drivers/CMSIS/Include/cmsis_gcc.h **** #pragma GCC diagnostic ignored "-Wunused-parameter"
  33:Drivers/CMSIS/Include/cmsis_gcc.h **** 
  34:Drivers/CMSIS/Include/cmsis_gcc.h **** /* Fallback for __has_builtin */
  35:Drivers/CMSIS/Include/cmsis_gcc.h **** #ifndef __has_builtin
  36:Drivers/CMSIS/Include/cmsis_gcc.h ****   #define __has_builtin(x) (0)
  37:Drivers/CMSIS/Include/cmsis_gcc.h **** #endif
  38:Drivers/CMSIS/Include/cmsis_gcc.h **** 
  39:Drivers/CMSIS/Include/cmsis_gcc.h **** /* CMSIS compiler specific defines */
  40:Drivers/CMSIS/Include/cmsis_gcc.h **** #ifndef   __ASM
  41:Drivers/CMSIS/Include/cmsis_gcc.h ****   #define __ASM                                  __asm
  42:Drivers/CMSIS/Include/cmsis_gcc.h **** #endif
  43:Drivers/CMSIS/Include/cmsis_gcc.h **** #ifndef   __INLINE
  44:Drivers/CMSIS/Include/cmsis_gcc.h ****   #define __INLINE                               inline
  45:Drivers/CMSIS/Include/cmsis_gcc.h **** #endif
  46:Drivers/CMSIS/Include/cmsis_gcc.h **** #ifndef   __STATIC_INLINE
  47:Drivers/CMSIS/Include/cmsis_gcc.h ****   #define __STATIC_INLINE                        static inline
ARM GAS  C:\Users\Andre\AppData\Local\Temp\ccQSUiO1.s 			page 6


  48:Drivers/CMSIS/Include/cmsis_gcc.h **** #endif
  49:Drivers/CMSIS/Include/cmsis_gcc.h **** #ifndef   __STATIC_FORCEINLINE                 
  50:Drivers/CMSIS/Include/cmsis_gcc.h ****   #define __STATIC_FORCEINLINE                   __attribute__((always_inline)) static inline
  51:Drivers/CMSIS/Include/cmsis_gcc.h **** #endif                                           
  52:Drivers/CMSIS/Include/cmsis_gcc.h **** #ifndef   __NO_RETURN
  53:Drivers/CMSIS/Include/cmsis_gcc.h ****   #define __NO_RETURN                            __attribute__((__noreturn__))
  54:Drivers/CMSIS/Include/cmsis_gcc.h **** #endif
  55:Drivers/CMSIS/Include/cmsis_gcc.h **** #ifndef   __USED
  56:Drivers/CMSIS/Include/cmsis_gcc.h ****   #define __USED                                 __attribute__((used))
  57:Drivers/CMSIS/Include/cmsis_gcc.h **** #endif
  58:Drivers/CMSIS/Include/cmsis_gcc.h **** #ifndef   __WEAK
  59:Drivers/CMSIS/Include/cmsis_gcc.h ****   #define __WEAK                                 __attribute__((weak))
  60:Drivers/CMSIS/Include/cmsis_gcc.h **** #endif
  61:Drivers/CMSIS/Include/cmsis_gcc.h **** #ifndef   __PACKED
  62:Drivers/CMSIS/Include/cmsis_gcc.h ****   #define __PACKED                               __attribute__((packed, aligned(1)))
  63:Drivers/CMSIS/Include/cmsis_gcc.h **** #endif
  64:Drivers/CMSIS/Include/cmsis_gcc.h **** #ifndef   __PACKED_STRUCT
  65:Drivers/CMSIS/Include/cmsis_gcc.h ****   #define __PACKED_STRUCT                        struct __attribute__((packed, aligned(1)))
  66:Drivers/CMSIS/Include/cmsis_gcc.h **** #endif
  67:Drivers/CMSIS/Include/cmsis_gcc.h **** #ifndef   __PACKED_UNION
  68:Drivers/CMSIS/Include/cmsis_gcc.h ****   #define __PACKED_UNION                         union __attribute__((packed, aligned(1)))
  69:Drivers/CMSIS/Include/cmsis_gcc.h **** #endif
  70:Drivers/CMSIS/Include/cmsis_gcc.h **** #ifndef   __UNALIGNED_UINT32        /* deprecated */
  71:Drivers/CMSIS/Include/cmsis_gcc.h ****   #pragma GCC diagnostic push
  72:Drivers/CMSIS/Include/cmsis_gcc.h ****   #pragma GCC diagnostic ignored "-Wpacked"
  73:Drivers/CMSIS/Include/cmsis_gcc.h ****   #pragma GCC diagnostic ignored "-Wattributes"
  74:Drivers/CMSIS/Include/cmsis_gcc.h ****   struct __attribute__((packed)) T_UINT32 { uint32_t v; };
  75:Drivers/CMSIS/Include/cmsis_gcc.h ****   #pragma GCC diagnostic pop
  76:Drivers/CMSIS/Include/cmsis_gcc.h ****   #define __UNALIGNED_UINT32(x)                  (((struct T_UINT32 *)(x))->v)
  77:Drivers/CMSIS/Include/cmsis_gcc.h **** #endif
  78:Drivers/CMSIS/Include/cmsis_gcc.h **** #ifndef   __UNALIGNED_UINT16_WRITE
  79:Drivers/CMSIS/Include/cmsis_gcc.h ****   #pragma GCC diagnostic push
  80:Drivers/CMSIS/Include/cmsis_gcc.h ****   #pragma GCC diagnostic ignored "-Wpacked"
  81:Drivers/CMSIS/Include/cmsis_gcc.h ****   #pragma GCC diagnostic ignored "-Wattributes"
  82:Drivers/CMSIS/Include/cmsis_gcc.h ****   __PACKED_STRUCT T_UINT16_WRITE { uint16_t v; };
  83:Drivers/CMSIS/Include/cmsis_gcc.h ****   #pragma GCC diagnostic pop
  84:Drivers/CMSIS/Include/cmsis_gcc.h ****   #define __UNALIGNED_UINT16_WRITE(addr, val)    (void)((((struct T_UINT16_WRITE *)(void *)(addr))-
  85:Drivers/CMSIS/Include/cmsis_gcc.h **** #endif
  86:Drivers/CMSIS/Include/cmsis_gcc.h **** #ifndef   __UNALIGNED_UINT16_READ
  87:Drivers/CMSIS/Include/cmsis_gcc.h ****   #pragma GCC diagnostic push
  88:Drivers/CMSIS/Include/cmsis_gcc.h ****   #pragma GCC diagnostic ignored "-Wpacked"
  89:Drivers/CMSIS/Include/cmsis_gcc.h ****   #pragma GCC diagnostic ignored "-Wattributes"
  90:Drivers/CMSIS/Include/cmsis_gcc.h ****   __PACKED_STRUCT T_UINT16_READ { uint16_t v; };
  91:Drivers/CMSIS/Include/cmsis_gcc.h ****   #pragma GCC diagnostic pop
  92:Drivers/CMSIS/Include/cmsis_gcc.h ****   #define __UNALIGNED_UINT16_READ(addr)          (((const struct T_UINT16_READ *)(const void *)(add
  93:Drivers/CMSIS/Include/cmsis_gcc.h **** #endif
  94:Drivers/CMSIS/Include/cmsis_gcc.h **** #ifndef   __UNALIGNED_UINT32_WRITE
  95:Drivers/CMSIS/Include/cmsis_gcc.h ****   #pragma GCC diagnostic push
  96:Drivers/CMSIS/Include/cmsis_gcc.h ****   #pragma GCC diagnostic ignored "-Wpacked"
  97:Drivers/CMSIS/Include/cmsis_gcc.h ****   #pragma GCC diagnostic ignored "-Wattributes"
  98:Drivers/CMSIS/Include/cmsis_gcc.h ****   __PACKED_STRUCT T_UINT32_WRITE { uint32_t v; };
  99:Drivers/CMSIS/Include/cmsis_gcc.h ****   #pragma GCC diagnostic pop
 100:Drivers/CMSIS/Include/cmsis_gcc.h ****   #define __UNALIGNED_UINT32_WRITE(addr, val)    (void)((((struct T_UINT32_WRITE *)(void *)(addr))-
 101:Drivers/CMSIS/Include/cmsis_gcc.h **** #endif
 102:Drivers/CMSIS/Include/cmsis_gcc.h **** #ifndef   __UNALIGNED_UINT32_READ
 103:Drivers/CMSIS/Include/cmsis_gcc.h ****   #pragma GCC diagnostic push
 104:Drivers/CMSIS/Include/cmsis_gcc.h ****   #pragma GCC diagnostic ignored "-Wpacked"
ARM GAS  C:\Users\Andre\AppData\Local\Temp\ccQSUiO1.s 			page 7


 105:Drivers/CMSIS/Include/cmsis_gcc.h ****   #pragma GCC diagnostic ignored "-Wattributes"
 106:Drivers/CMSIS/Include/cmsis_gcc.h ****   __PACKED_STRUCT T_UINT32_READ { uint32_t v; };
 107:Drivers/CMSIS/Include/cmsis_gcc.h ****   #pragma GCC diagnostic pop
 108:Drivers/CMSIS/Include/cmsis_gcc.h ****   #define __UNALIGNED_UINT32_READ(addr)          (((const struct T_UINT32_READ *)(const void *)(add
 109:Drivers/CMSIS/Include/cmsis_gcc.h **** #endif
 110:Drivers/CMSIS/Include/cmsis_gcc.h **** #ifndef   __ALIGNED
 111:Drivers/CMSIS/Include/cmsis_gcc.h ****   #define __ALIGNED(x)                           __attribute__((aligned(x)))
 112:Drivers/CMSIS/Include/cmsis_gcc.h **** #endif
 113:Drivers/CMSIS/Include/cmsis_gcc.h **** #ifndef   __RESTRICT
 114:Drivers/CMSIS/Include/cmsis_gcc.h ****   #define __RESTRICT                             __restrict
 115:Drivers/CMSIS/Include/cmsis_gcc.h **** #endif
 116:Drivers/CMSIS/Include/cmsis_gcc.h **** 
 117:Drivers/CMSIS/Include/cmsis_gcc.h **** 
 118:Drivers/CMSIS/Include/cmsis_gcc.h **** /* ###########################  Core Function Access  ########################### */
 119:Drivers/CMSIS/Include/cmsis_gcc.h **** /** \ingroup  CMSIS_Core_FunctionInterface
 120:Drivers/CMSIS/Include/cmsis_gcc.h ****     \defgroup CMSIS_Core_RegAccFunctions CMSIS Core Register Access Functions
 121:Drivers/CMSIS/Include/cmsis_gcc.h ****   @{
 122:Drivers/CMSIS/Include/cmsis_gcc.h ****  */
 123:Drivers/CMSIS/Include/cmsis_gcc.h **** 
 124:Drivers/CMSIS/Include/cmsis_gcc.h **** /**
 125:Drivers/CMSIS/Include/cmsis_gcc.h ****   \brief   Enable IRQ Interrupts
 126:Drivers/CMSIS/Include/cmsis_gcc.h ****   \details Enables IRQ interrupts by clearing the I-bit in the CPSR.
 127:Drivers/CMSIS/Include/cmsis_gcc.h ****            Can only be executed in Privileged modes.
 128:Drivers/CMSIS/Include/cmsis_gcc.h ****  */
 129:Drivers/CMSIS/Include/cmsis_gcc.h **** __STATIC_FORCEINLINE void __enable_irq(void)
 130:Drivers/CMSIS/Include/cmsis_gcc.h **** {
 131:Drivers/CMSIS/Include/cmsis_gcc.h ****   __ASM volatile ("cpsie i" : : : "memory");
 132:Drivers/CMSIS/Include/cmsis_gcc.h **** }
 133:Drivers/CMSIS/Include/cmsis_gcc.h **** 
 134:Drivers/CMSIS/Include/cmsis_gcc.h **** 
 135:Drivers/CMSIS/Include/cmsis_gcc.h **** /**
 136:Drivers/CMSIS/Include/cmsis_gcc.h ****   \brief   Disable IRQ Interrupts
 137:Drivers/CMSIS/Include/cmsis_gcc.h ****   \details Disables IRQ interrupts by setting the I-bit in the CPSR.
 138:Drivers/CMSIS/Include/cmsis_gcc.h ****            Can only be executed in Privileged modes.
 139:Drivers/CMSIS/Include/cmsis_gcc.h ****  */
 140:Drivers/CMSIS/Include/cmsis_gcc.h **** __STATIC_FORCEINLINE void __disable_irq(void)
  37              		.loc 2 140 27 view .LVU2
  38              	.LBB5:
 141:Drivers/CMSIS/Include/cmsis_gcc.h **** {
 142:Drivers/CMSIS/Include/cmsis_gcc.h ****   __ASM volatile ("cpsid i" : : : "memory");
  39              		.loc 2 142 3 view .LVU3
  40              		.syntax unified
  41              	@ 142 "Drivers/CMSIS/Include/cmsis_gcc.h" 1
  42 0000 72B6     		cpsid i
  43              	@ 0 "" 2
  44              		.thumb
  45              		.syntax unified
  46              	.L2:
  47              	.LBE5:
  48              	.LBE4:
 204:Src/main.c    ****   while (1)
  49              		.loc 1 204 3 discriminator 1 view .LVU4
 205:Src/main.c    ****   {
 206:Src/main.c    ****   }
  50              		.loc 1 206 3 discriminator 1 view .LVU5
 204:Src/main.c    ****   while (1)
  51              		.loc 1 204 9 discriminator 1 view .LVU6
ARM GAS  C:\Users\Andre\AppData\Local\Temp\ccQSUiO1.s 			page 8


  52 0002 FEE7     		b	.L2
  53              		.cfi_endproc
  54              	.LFE67:
  56              		.section	.text.SystemClock_Config,"ax",%progbits
  57              		.align	1
  58              		.global	SystemClock_Config
  59              		.syntax unified
  60              		.thumb
  61              		.thumb_func
  62              		.fpu softvfp
  64              	SystemClock_Config:
  65              	.LFB66:
 158:Src/main.c    ****   RCC_OscInitTypeDef RCC_OscInitStruct = {0};
  66              		.loc 1 158 1 view -0
  67              		.cfi_startproc
  68              		@ args = 0, pretend = 0, frame = 64
  69              		@ frame_needed = 0, uses_anonymous_args = 0
  70 0000 00B5     		push	{lr}
  71              	.LCFI0:
  72              		.cfi_def_cfa_offset 4
  73              		.cfi_offset 14, -4
  74 0002 91B0     		sub	sp, sp, #68
  75              	.LCFI1:
  76              		.cfi_def_cfa_offset 72
 159:Src/main.c    ****   RCC_ClkInitTypeDef RCC_ClkInitStruct = {0};
  77              		.loc 1 159 3 view .LVU8
 159:Src/main.c    ****   RCC_ClkInitTypeDef RCC_ClkInitStruct = {0};
  78              		.loc 1 159 22 is_stmt 0 view .LVU9
  79 0004 0023     		movs	r3, #0
  80 0006 0993     		str	r3, [sp, #36]
  81 0008 0B93     		str	r3, [sp, #44]
  82 000a 0C93     		str	r3, [sp, #48]
 160:Src/main.c    **** 
  83              		.loc 1 160 3 is_stmt 1 view .LVU10
 160:Src/main.c    **** 
  84              		.loc 1 160 22 is_stmt 0 view .LVU11
  85 000c 0193     		str	r3, [sp, #4]
  86 000e 0293     		str	r3, [sp, #8]
  87 0010 0393     		str	r3, [sp, #12]
  88 0012 0493     		str	r3, [sp, #16]
  89 0014 0593     		str	r3, [sp, #20]
 165:Src/main.c    ****   RCC_OscInitStruct.HSEState = RCC_HSE_ON;
  90              		.loc 1 165 3 is_stmt 1 view .LVU12
 165:Src/main.c    ****   RCC_OscInitStruct.HSEState = RCC_HSE_ON;
  91              		.loc 1 165 36 is_stmt 0 view .LVU13
  92 0016 0121     		movs	r1, #1
  93 0018 0691     		str	r1, [sp, #24]
 166:Src/main.c    ****   RCC_OscInitStruct.HSEPredivValue = RCC_HSE_PREDIV_DIV1;
  94              		.loc 1 166 3 is_stmt 1 view .LVU14
 166:Src/main.c    ****   RCC_OscInitStruct.HSEPredivValue = RCC_HSE_PREDIV_DIV1;
  95              		.loc 1 166 30 is_stmt 0 view .LVU15
  96 001a 4FF48032 		mov	r2, #65536
  97 001e 0792     		str	r2, [sp, #28]
 167:Src/main.c    ****   RCC_OscInitStruct.HSIState = RCC_HSI_ON;
  98              		.loc 1 167 3 is_stmt 1 view .LVU16
 167:Src/main.c    ****   RCC_OscInitStruct.HSIState = RCC_HSI_ON;
  99              		.loc 1 167 36 is_stmt 0 view .LVU17
ARM GAS  C:\Users\Andre\AppData\Local\Temp\ccQSUiO1.s 			page 9


 100 0020 0893     		str	r3, [sp, #32]
 168:Src/main.c    ****   RCC_OscInitStruct.PLL.PLLState = RCC_PLL_ON;
 101              		.loc 1 168 3 is_stmt 1 view .LVU18
 168:Src/main.c    ****   RCC_OscInitStruct.PLL.PLLState = RCC_PLL_ON;
 102              		.loc 1 168 30 is_stmt 0 view .LVU19
 103 0022 0A91     		str	r1, [sp, #40]
 169:Src/main.c    ****   RCC_OscInitStruct.PLL.PLLSource = RCC_PLLSOURCE_HSE;
 104              		.loc 1 169 3 is_stmt 1 view .LVU20
 169:Src/main.c    ****   RCC_OscInitStruct.PLL.PLLSource = RCC_PLLSOURCE_HSE;
 105              		.loc 1 169 34 is_stmt 0 view .LVU21
 106 0024 0223     		movs	r3, #2
 107 0026 0D93     		str	r3, [sp, #52]
 170:Src/main.c    ****   RCC_OscInitStruct.PLL.PLLMUL = RCC_PLL_MUL3;
 108              		.loc 1 170 3 is_stmt 1 view .LVU22
 170:Src/main.c    ****   RCC_OscInitStruct.PLL.PLLMUL = RCC_PLL_MUL3;
 109              		.loc 1 170 35 is_stmt 0 view .LVU23
 110 0028 0E92     		str	r2, [sp, #56]
 171:Src/main.c    ****   if (HAL_RCC_OscConfig(&RCC_OscInitStruct) != HAL_OK)
 111              		.loc 1 171 3 is_stmt 1 view .LVU24
 171:Src/main.c    ****   if (HAL_RCC_OscConfig(&RCC_OscInitStruct) != HAL_OK)
 112              		.loc 1 171 32 is_stmt 0 view .LVU25
 113 002a 4FF48023 		mov	r3, #262144
 114 002e 0F93     		str	r3, [sp, #60]
 172:Src/main.c    ****   {
 115              		.loc 1 172 3 is_stmt 1 view .LVU26
 172:Src/main.c    ****   {
 116              		.loc 1 172 7 is_stmt 0 view .LVU27
 117 0030 06A8     		add	r0, sp, #24
 118 0032 FFF7FEFF 		bl	HAL_RCC_OscConfig
 119              	.LVL0:
 172:Src/main.c    ****   {
 120              		.loc 1 172 6 view .LVU28
 121 0036 80B9     		cbnz	r0, .L7
 178:Src/main.c    ****                               |RCC_CLOCKTYPE_PCLK1|RCC_CLOCKTYPE_PCLK2;
 122              		.loc 1 178 3 is_stmt 1 view .LVU29
 178:Src/main.c    ****                               |RCC_CLOCKTYPE_PCLK1|RCC_CLOCKTYPE_PCLK2;
 123              		.loc 1 178 31 is_stmt 0 view .LVU30
 124 0038 0F23     		movs	r3, #15
 125 003a 0193     		str	r3, [sp, #4]
 180:Src/main.c    ****   RCC_ClkInitStruct.AHBCLKDivider = RCC_SYSCLK_DIV2;
 126              		.loc 1 180 3 is_stmt 1 view .LVU31
 180:Src/main.c    ****   RCC_ClkInitStruct.AHBCLKDivider = RCC_SYSCLK_DIV2;
 127              		.loc 1 180 34 is_stmt 0 view .LVU32
 128 003c 0223     		movs	r3, #2
 129 003e 0293     		str	r3, [sp, #8]
 181:Src/main.c    ****   RCC_ClkInitStruct.APB1CLKDivider = RCC_HCLK_DIV1;
 130              		.loc 1 181 3 is_stmt 1 view .LVU33
 181:Src/main.c    ****   RCC_ClkInitStruct.APB1CLKDivider = RCC_HCLK_DIV1;
 131              		.loc 1 181 35 is_stmt 0 view .LVU34
 132 0040 8023     		movs	r3, #128
 133 0042 0393     		str	r3, [sp, #12]
 182:Src/main.c    ****   RCC_ClkInitStruct.APB2CLKDivider = RCC_HCLK_DIV1;
 134              		.loc 1 182 3 is_stmt 1 view .LVU35
 182:Src/main.c    ****   RCC_ClkInitStruct.APB2CLKDivider = RCC_HCLK_DIV1;
 135              		.loc 1 182 36 is_stmt 0 view .LVU36
 136 0044 0023     		movs	r3, #0
 137 0046 0493     		str	r3, [sp, #16]
ARM GAS  C:\Users\Andre\AppData\Local\Temp\ccQSUiO1.s 			page 10


 183:Src/main.c    **** 
 138              		.loc 1 183 3 is_stmt 1 view .LVU37
 183:Src/main.c    **** 
 139              		.loc 1 183 36 is_stmt 0 view .LVU38
 140 0048 0593     		str	r3, [sp, #20]
 185:Src/main.c    ****   {
 141              		.loc 1 185 3 is_stmt 1 view .LVU39
 185:Src/main.c    ****   {
 142              		.loc 1 185 7 is_stmt 0 view .LVU40
 143 004a 0121     		movs	r1, #1
 144 004c 01A8     		add	r0, sp, #4
 145 004e FFF7FEFF 		bl	HAL_RCC_ClockConfig
 146              	.LVL1:
 185:Src/main.c    ****   {
 147              		.loc 1 185 6 view .LVU41
 148 0052 20B9     		cbnz	r0, .L8
 189:Src/main.c    **** 
 149              		.loc 1 189 1 view .LVU42
 150 0054 11B0     		add	sp, sp, #68
 151              	.LCFI2:
 152              		.cfi_remember_state
 153              		.cfi_def_cfa_offset 4
 154              		@ sp needed
 155 0056 5DF804FB 		ldr	pc, [sp], #4
 156              	.L7:
 157              	.LCFI3:
 158              		.cfi_restore_state
 174:Src/main.c    ****   }
 159              		.loc 1 174 5 is_stmt 1 view .LVU43
 160 005a FFF7FEFF 		bl	Error_Handler
 161              	.LVL2:
 162              	.L8:
 187:Src/main.c    ****   }
 163              		.loc 1 187 5 view .LVU44
 164 005e FFF7FEFF 		bl	Error_Handler
 165              	.LVL3:
 166              		.cfi_endproc
 167              	.LFE66:
 169              		.section	.text.main,"ax",%progbits
 170              		.align	1
 171              		.global	main
 172              		.syntax unified
 173              		.thumb
 174              		.thumb_func
 175              		.fpu softvfp
 177              	main:
 178              	.LFB65:
  59:Src/main.c    ****   /* USER CODE BEGIN 1 */
 179              		.loc 1 59 1 view -0
 180              		.cfi_startproc
 181              		@ Volatile: function does not return.
 182              		@ args = 0, pretend = 0, frame = 0
 183              		@ frame_needed = 0, uses_anonymous_args = 0
 184 0000 00B5     		push	{lr}
 185              	.LCFI4:
 186              		.cfi_def_cfa_offset 4
 187              		.cfi_offset 14, -4
ARM GAS  C:\Users\Andre\AppData\Local\Temp\ccQSUiO1.s 			page 11


 188 0002 83B0     		sub	sp, sp, #12
 189              	.LCFI5:
 190              		.cfi_def_cfa_offset 16
  66:Src/main.c    **** 
 191              		.loc 1 66 3 view .LVU46
 192 0004 FFF7FEFF 		bl	HAL_Init
 193              	.LVL4:
  72:Src/main.c    **** 
 194              		.loc 1 72 3 view .LVU47
 195 0008 FFF7FEFF 		bl	SystemClock_Config
 196              	.LVL5:
  79:Src/main.c    ****   MX_SPI2_Init();
 197              		.loc 1 79 3 view .LVU48
 198 000c FFF7FEFF 		bl	MX_GPIO_Init
 199              	.LVL6:
  80:Src/main.c    ****   MX_TIM1_Init();
 200              		.loc 1 80 3 view .LVU49
 201 0010 FFF7FEFF 		bl	MX_SPI2_Init
 202              	.LVL7:
  81:Src/main.c    ****   MX_TIM4_Init();
 203              		.loc 1 81 3 view .LVU50
 204 0014 FFF7FEFF 		bl	MX_TIM1_Init
 205              	.LVL8:
  82:Src/main.c    ****   MX_USART3_UART_Init();
 206              		.loc 1 82 3 view .LVU51
 207 0018 FFF7FEFF 		bl	MX_TIM4_Init
 208              	.LVL9:
  83:Src/main.c    ****   MX_TIM2_Init();
 209              		.loc 1 83 3 view .LVU52
 210 001c FFF7FEFF 		bl	MX_USART3_UART_Init
 211              	.LVL10:
  84:Src/main.c    ****   MX_TIM3_Init();
 212              		.loc 1 84 3 view .LVU53
 213 0020 FFF7FEFF 		bl	MX_TIM2_Init
 214              	.LVL11:
  85:Src/main.c    **** 
 215              		.loc 1 85 3 view .LVU54
 216 0024 FFF7FEFF 		bl	MX_TIM3_Init
 217              	.LVL12:
  87:Src/main.c    ****   
 218              		.loc 1 87 3 view .LVU55
 219 0028 4C4C     		ldr	r4, .L23
 220 002a 0122     		movs	r2, #1
 221 002c 4FF40071 		mov	r1, #512
 222 0030 2046     		mov	r0, r4
 223 0032 FFF7FEFF 		bl	HAL_GPIO_WritePin
 224              	.LVL13:
  87:Src/main.c    ****   
 225              		.loc 1 87 12 view .LVU56
 226 0036 0122     		movs	r2, #1
 227 0038 4FF48071 		mov	r1, #256
 228 003c 2046     		mov	r0, r4
 229 003e FFF7FEFF 		bl	HAL_GPIO_WritePin
 230              	.LVL14:
  89:Src/main.c    **** 	eMBEnable();
 231              		.loc 1 89 2 view .LVU57
 232 0042 474B     		ldr	r3, .L23+4
ARM GAS  C:\Users\Andre\AppData\Local\Temp\ccQSUiO1.s 			page 12


 233 0044 0093     		str	r3, [sp]
 234 0046 4FF4E133 		mov	r3, #115200
 235 004a 464A     		ldr	r2, .L23+8
 236 004c 0221     		movs	r1, #2
 237 004e 0020     		movs	r0, #0
 238 0050 FFF7FEFF 		bl	eMBInit
 239              	.LVL15:
  90:Src/main.c    **** 
 240              		.loc 1 90 2 view .LVU58
 241 0054 FFF7FEFF 		bl	eMBEnable
 242              	.LVL16:
 243 0058 06E0     		b	.L19
 244              	.L14:
 102:Src/main.c    **** 		  break;
 245              		.loc 1 102 5 view .LVU59
 246 005a FFF7FEFF 		bl	WaitingMode
 247              	.LVL17:
 103:Src/main.c    **** 		  
 248              		.loc 1 103 5 view .LVU60
 249              	.L10:
 145:Src/main.c    **** 	  eMBPoll();
 250              		.loc 1 145 4 view .LVU61
 251 005e 1420     		movs	r0, #20
 252 0060 FFF7FEFF 		bl	HAL_Delay
 253              	.LVL18:
 146:Src/main.c    ****     /* USER CODE END WHILE */
 254              		.loc 1 146 4 view .LVU62
 255 0064 FFF7FEFF 		bl	eMBPoll
 256              	.LVL19:
  96:Src/main.c    ****     operatingMode = usSRegHoldBuf[0];
 257              		.loc 1 96 9 view .LVU63
 258              	.L19:
  96:Src/main.c    ****     operatingMode = usSRegHoldBuf[0];
 259              		.loc 1 96 3 view .LVU64
  97:Src/main.c    **** 	  Start = usSRegHoldBuf[1];
 260              		.loc 1 97 5 view .LVU65
  97:Src/main.c    **** 	  Start = usSRegHoldBuf[1];
 261              		.loc 1 97 34 is_stmt 0 view .LVU66
 262 0068 3F4A     		ldr	r2, .L23+12
 263 006a 1388     		ldrh	r3, [r2]
  97:Src/main.c    **** 	  Start = usSRegHoldBuf[1];
 264              		.loc 1 97 19 view .LVU67
 265 006c 3F49     		ldr	r1, .L23+16
 266 006e 0B60     		str	r3, [r1]
  98:Src/main.c    ****     	  
 267              		.loc 1 98 4 is_stmt 1 view .LVU68
  98:Src/main.c    ****     	  
 268              		.loc 1 98 25 is_stmt 0 view .LVU69
 269 0070 5188     		ldrh	r1, [r2, #2]
  98:Src/main.c    ****     	  
 270              		.loc 1 98 10 view .LVU70
 271 0072 3F4A     		ldr	r2, .L23+20
 272 0074 1160     		str	r1, [r2]
 100:Src/main.c    **** 		  case 3:
 273              		.loc 1 100 4 is_stmt 1 view .LVU71
 274 0076 013B     		subs	r3, r3, #1
 275 0078 052B     		cmp	r3, #5
ARM GAS  C:\Users\Andre\AppData\Local\Temp\ccQSUiO1.s 			page 13


 276 007a F0D8     		bhi	.L10
 277 007c 01A2     		adr	r2, .L12
 278 007e 52F823F0 		ldr	pc, [r2, r3, lsl #2]
 279 0082 00BF     		.p2align 2
 280              	.L12:
 281 0084 9D000000 		.word	.L16+1
 282 0088 E7000000 		.word	.L15+1
 283 008c 5B000000 		.word	.L14+1
 284 0090 5F000000 		.word	.L10+1
 285 0094 31010000 		.word	.L13+1
 286 0098 41010000 		.word	.L11+1
 287              		.p2align 1
 288              	.L16:
 106:Src/main.c    ****       LED_Cathode_VD_ON;  LED_VD_ON;          //Светодиод режима диода //Све
 289              		.loc 1 106 5 view .LVU72
 290 009c 354C     		ldr	r4, .L23+24
 291 009e 0022     		movs	r2, #0
 292 00a0 4021     		movs	r1, #64
 293 00a2 2046     		mov	r0, r4
 294 00a4 FFF7FEFF 		bl	HAL_GPIO_WritePin
 295              	.LVL20:
 106:Src/main.c    ****       LED_Cathode_VD_ON;  LED_VD_ON;          //Светодиод режима диода //Све
 296              		.loc 1 106 25 view .LVU73
 297 00a8 0022     		movs	r2, #0
 298 00aa 2021     		movs	r1, #32
 299 00ac 2046     		mov	r0, r4
 300 00ae FFF7FEFF 		bl	HAL_GPIO_WritePin
 301              	.LVL21:
 107:Src/main.c    **** 			  
 302              		.loc 1 107 7 view .LVU74
 303 00b2 0122     		movs	r2, #1
 304 00b4 4FF40071 		mov	r1, #512
 305 00b8 2046     		mov	r0, r4
 306 00ba FFF7FEFF 		bl	HAL_GPIO_WritePin
 307              	.LVL22:
 107:Src/main.c    **** 			  
 308              		.loc 1 107 27 view .LVU75
 309 00be 0122     		movs	r2, #1
 310 00c0 4FF48071 		mov	r1, #256
 311 00c4 2046     		mov	r0, r4
 312 00c6 FFF7FEFF 		bl	HAL_GPIO_WritePin
 313              	.LVL23:
 109:Src/main.c    ****           StaticMeasurementMode_VD(); 
 314              		.loc 1 109 6 view .LVU76
 109:Src/main.c    ****           StaticMeasurementMode_VD(); 
 315              		.loc 1 109 16 is_stmt 0 view .LVU77
 316 00ca 294B     		ldr	r3, .L23+20
 317 00cc 1B68     		ldr	r3, [r3]
 109:Src/main.c    ****           StaticMeasurementMode_VD(); 
 318              		.loc 1 109 9 view .LVU78
 319 00ce 012B     		cmp	r3, #1
 320 00d0 06D0     		beq	.L21
 321              	.L17:
 112:Src/main.c    **** 				  modeVD_pulse();
 322              		.loc 1 112 6 is_stmt 1 view .LVU79
 112:Src/main.c    **** 				  modeVD_pulse();
 323              		.loc 1 112 16 is_stmt 0 view .LVU80
ARM GAS  C:\Users\Andre\AppData\Local\Temp\ccQSUiO1.s 			page 14


 324 00d2 274B     		ldr	r3, .L23+20
 325 00d4 1B68     		ldr	r3, [r3]
 112:Src/main.c    **** 				  modeVD_pulse();
 326              		.loc 1 112 9 view .LVU81
 327 00d6 022B     		cmp	r3, #2
 328 00d8 C1D1     		bne	.L10
 113:Src/main.c    **** 			  }
 329              		.loc 1 113 7 is_stmt 1 view .LVU82
 330 00da FFF7FEFF 		bl	modeVD_pulse
 331              	.LVL24:
 332 00de BEE7     		b	.L10
 333              	.L21:
 110:Src/main.c    **** 			  }
 334              		.loc 1 110 11 view .LVU83
 335 00e0 FFF7FEFF 		bl	StaticMeasurementMode_VD
 336              	.LVL25:
 337 00e4 F5E7     		b	.L17
 338              	.L15:
 118:Src/main.c    ****       LED_Cathode_VZ_ON;  LED_VZ_ON;   //Светодиод катода VZ //Светодиод р
 339              		.loc 1 118 7 view .LVU84
 340 00e6 234C     		ldr	r4, .L23+24
 341 00e8 0022     		movs	r2, #0
 342 00ea 4FF40071 		mov	r1, #512
 343 00ee 2046     		mov	r0, r4
 344 00f0 FFF7FEFF 		bl	HAL_GPIO_WritePin
 345              	.LVL26:
 118:Src/main.c    ****       LED_Cathode_VZ_ON;  LED_VZ_ON;   //Светодиод катода VZ //Светодиод р
 346              		.loc 1 118 27 view .LVU85
 347 00f4 0022     		movs	r2, #0
 348 00f6 4FF48071 		mov	r1, #256
 349 00fa 2046     		mov	r0, r4
 350 00fc FFF7FEFF 		bl	HAL_GPIO_WritePin
 351              	.LVL27:
 119:Src/main.c    **** 			  
 352              		.loc 1 119 7 view .LVU86
 353 0100 0122     		movs	r2, #1
 354 0102 4021     		movs	r1, #64
 355 0104 2046     		mov	r0, r4
 356 0106 FFF7FEFF 		bl	HAL_GPIO_WritePin
 357              	.LVL28:
 119:Src/main.c    **** 			  
 358              		.loc 1 119 27 view .LVU87
 359 010a 0122     		movs	r2, #1
 360 010c 2021     		movs	r1, #32
 361 010e 2046     		mov	r0, r4
 362 0110 FFF7FEFF 		bl	HAL_GPIO_WritePin
 363              	.LVL29:
 121:Src/main.c    **** 				  StaticMeasurementMode_VZ();
 364              		.loc 1 121 6 view .LVU88
 121:Src/main.c    **** 				  StaticMeasurementMode_VZ();
 365              		.loc 1 121 16 is_stmt 0 view .LVU89
 366 0114 164B     		ldr	r3, .L23+20
 367 0116 1B68     		ldr	r3, [r3]
 121:Src/main.c    **** 				  StaticMeasurementMode_VZ();
 368              		.loc 1 121 9 view .LVU90
 369 0118 032B     		cmp	r3, #3
 370 011a 06D0     		beq	.L22
ARM GAS  C:\Users\Andre\AppData\Local\Temp\ccQSUiO1.s 			page 15


 371              	.L18:
 124:Src/main.c    **** 				  modeVZ_pulse();
 372              		.loc 1 124 6 is_stmt 1 view .LVU91
 124:Src/main.c    **** 				  modeVZ_pulse();
 373              		.loc 1 124 16 is_stmt 0 view .LVU92
 374 011c 144B     		ldr	r3, .L23+20
 375 011e 1B68     		ldr	r3, [r3]
 124:Src/main.c    **** 				  modeVZ_pulse();
 376              		.loc 1 124 9 view .LVU93
 377 0120 042B     		cmp	r3, #4
 378 0122 9CD1     		bne	.L10
 125:Src/main.c    **** 			  } 
 379              		.loc 1 125 7 is_stmt 1 view .LVU94
 380 0124 FFF7FEFF 		bl	modeVZ_pulse
 381              	.LVL30:
 382 0128 99E7     		b	.L10
 383              	.L22:
 122:Src/main.c    **** 			  }
 384              		.loc 1 122 7 view .LVU95
 385 012a FFF7FEFF 		bl	StaticMeasurementMode_VZ
 386              	.LVL31:
 387 012e F5E7     		b	.L18
 388              	.L13:
 130:Src/main.c    **** 		  diagnostic();
 389              		.loc 1 130 5 view .LVU96
 390 0130 FFF7FEFF 		bl	WaitingMode
 391              	.LVL32:
 131:Src/main.c    **** 		  usSRegHoldBuf[0] = 0;
 392              		.loc 1 131 5 view .LVU97
 393 0134 FFF7FEFF 		bl	diagnostic
 394              	.LVL33:
 132:Src/main.c    **** 		  break;	
 395              		.loc 1 132 5 view .LVU98
 132:Src/main.c    **** 		  break;	
 396              		.loc 1 132 22 is_stmt 0 view .LVU99
 397 0138 0B4B     		ldr	r3, .L23+12
 398 013a 0022     		movs	r2, #0
 399 013c 1A80     		strh	r2, [r3]	@ movhi
 133:Src/main.c    **** 
 400              		.loc 1 133 5 is_stmt 1 view .LVU100
 401 013e 8EE7     		b	.L10
 402              	.L11:
 136:Src/main.c    ****       dataTransfer(12, add1);
 403              		.loc 1 136 7 view .LVU101
 136:Src/main.c    ****       dataTransfer(12, add1);
 404              		.loc 1 136 14 is_stmt 0 view .LVU102
 405 0140 0420     		movs	r0, #4
 406 0142 FFF7FEFF 		bl	dataReception
 407              	.LVL34:
 408 0146 0146     		mov	r1, r0
 136:Src/main.c    ****       dataTransfer(12, add1);
 409              		.loc 1 136 12 view .LVU103
 410 0148 0B4B     		ldr	r3, .L23+28
 411 014a 1860     		str	r0, [r3]	@ float
 137:Src/main.c    **** 
 412              		.loc 1 137 7 is_stmt 1 view .LVU104
 413 014c 0C20     		movs	r0, #12
ARM GAS  C:\Users\Andre\AppData\Local\Temp\ccQSUiO1.s 			page 16


 414 014e FFF7FEFF 		bl	dataTransfer
 415              	.LVL35:
 139:Src/main.c    ****       if (RecordFlash == 26) {
 416              		.loc 1 139 7 view .LVU105
 139:Src/main.c    ****       if (RecordFlash == 26) {
 417              		.loc 1 139 34 is_stmt 0 view .LVU106
 418 0152 054B     		ldr	r3, .L23+12
 419 0154 9A89     		ldrh	r2, [r3, #12]
 139:Src/main.c    ****       if (RecordFlash == 26) {
 420              		.loc 1 139 19 view .LVU107
 421 0156 094B     		ldr	r3, .L23+32
 422 0158 1A60     		str	r2, [r3]
 140:Src/main.c    ****         //WritingToFlash();	
 423              		.loc 1 140 7 is_stmt 1 view .LVU108
 142:Src/main.c    ****       break;		  
 424              		.loc 1 142 8 view .LVU109
 143:Src/main.c    **** 	  }
 425              		.loc 1 143 7 view .LVU110
 426 015a 80E7     		b	.L10
 427              	.L24:
 428              		.align	2
 429              	.L23:
 430 015c 00080140 		.word	1073809408
 431 0160 00000000 		.word	htim4
 432 0164 00000000 		.word	huart3
 433 0168 00000000 		.word	usSRegHoldBuf
 434 016c 00000000 		.word	operatingMode
 435 0170 00000000 		.word	Start
 436 0174 000C0140 		.word	1073810432
 437 0178 00000000 		.word	.LANCHOR0
 438 017c 00000000 		.word	.LANCHOR1
 439              		.cfi_endproc
 440              	.LFE65:
 442              		.global	add1
 443              		.global	RecordFlash
 444              		.comm	Start,4,4
 445              		.comm	operatingMode,4,4
 446              		.comm	eventDiagnostic,4,4
 447              		.comm	eventVZ,4,4
 448              		.comm	eventVD,4,4
 449              		.comm	iz30max,4,4
 450              		.comm	iz30min,4,4
 451              		.comm	id30max,4,4
 452              		.comm	id30min,4,4
 453              		.section	.bss.RecordFlash,"aw",%nobits
 454              		.align	2
 455              		.set	.LANCHOR1,. + 0
 458              	RecordFlash:
 459 0000 00000000 		.space	4
 460              		.section	.bss.add1,"aw",%nobits
 461              		.align	2
 462              		.set	.LANCHOR0,. + 0
 465              	add1:
 466 0000 00000000 		.space	4
 467              		.text
 468              	.Letext0:
 469              		.file 3 "c:\\vscodeproject\\software\\arm_gcc\\arm-none-eabi\\include\\machine\\_default_types.h"
ARM GAS  C:\Users\Andre\AppData\Local\Temp\ccQSUiO1.s 			page 17


 470              		.file 4 "c:\\vscodeproject\\software\\arm_gcc\\arm-none-eabi\\include\\sys\\_stdint.h"
 471              		.file 5 "Drivers/CMSIS/Include/core_cm3.h"
 472              		.file 6 "Drivers/CMSIS/Device/ST/STM32F1xx/Include/system_stm32f1xx.h"
 473              		.file 7 "Drivers/CMSIS/Device/ST/STM32F1xx/Include/stm32f103xb.h"
 474              		.file 8 "Drivers/STM32F1xx_HAL_Driver/Inc/stm32f1xx_hal_def.h"
 475              		.file 9 "Drivers/STM32F1xx_HAL_Driver/Inc/stm32f1xx_hal_rcc.h"
 476              		.file 10 "Drivers/STM32F1xx_HAL_Driver/Inc/stm32f1xx_hal_rcc_ex.h"
 477              		.file 11 "Drivers/STM32F1xx_HAL_Driver/Inc/stm32f1xx_hal_gpio.h"
 478              		.file 12 "Drivers/STM32F1xx_HAL_Driver/Inc/stm32f1xx_hal_dma.h"
 479              		.file 13 "Drivers/STM32F1xx_HAL_Driver/Inc/stm32f1xx_hal_spi.h"
 480              		.file 14 "Drivers/STM32F1xx_HAL_Driver/Inc/stm32f1xx_hal_tim.h"
 481              		.file 15 "Drivers/STM32F1xx_HAL_Driver/Inc/stm32f1xx_hal_uart.h"
 482              		.file 16 "Drivers/STM32F1xx_HAL_Driver/Inc/stm32f1xx_hal.h"
 483              		.file 17 "c:\\vscodeproject\\software\\arm_gcc\\arm-none-eabi\\include\\sys\\lock.h"
 484              		.file 18 "c:\\vscodeproject\\software\\arm_gcc\\arm-none-eabi\\include\\sys\\_types.h"
 485              		.file 19 "c:\\vscodeproject\\software\\arm_gcc\\lib\\gcc\\arm-none-eabi\\9.2.1\\include\\stddef.h"
 486              		.file 20 "c:\\vscodeproject\\software\\arm_gcc\\arm-none-eabi\\include\\sys\\reent.h"
 487              		.file 21 "Inc/spi.h"
 488              		.file 22 "Inc/tim.h"
 489              		.file 23 "Inc/usart.h"
 490              		.file 24 "Drivers/FreeModbus/port/port.h"
 491              		.file 25 "Drivers/FreeModbus/include/mbport.h"
 492              		.file 26 "Drivers/FreeModbus/include/mb.h"
 493              		.file 27 "Drivers/Middlewares/mode.h"
 494              		.file 28 "Inc/gpio.h"
 495              		.file 29 "Drivers/Middlewares/FunctionsTxRx.h"
ARM GAS  C:\Users\Andre\AppData\Local\Temp\ccQSUiO1.s 			page 18

