ARM GAS  C:\Users\du4\AppData\Local\Temp\ccSTEZbF.s 			page 1


   1              		.cpu cortex-m3
   2              		.eabi_attribute 20, 1
   3              		.eabi_attribute 21, 1
   4              		.eabi_attribute 23, 3
   5              		.eabi_attribute 24, 1
   6              		.eabi_attribute 25, 1
   7              		.eabi_attribute 26, 1
   8              		.eabi_attribute 30, 1
   9              		.eabi_attribute 34, 1
  10              		.eabi_attribute 18, 4
  11              		.file	"measuring_vd_vz.c"
  12              		.text
  13              	.Ltext0:
  14              		.cfi_sections	.debug_frame
  15              		.global	__aeabi_ui2f
  16              		.section	.text.AverageCalculationADC,"ax",%progbits
  17              		.align	1
  18              		.global	AverageCalculationADC
  19              		.arch armv7-m
  20              		.syntax unified
  21              		.thumb
  22              		.thumb_func
  23              		.fpu softvfp
  25              	AverageCalculationADC:
  26              	.LFB66:
  27              		.file 1 "Drivers/Middlewares/measuring_vd_vz.c"
   1:Drivers/Middlewares/measuring_vd_vz.c **** #include "measuring_vd_vz.h"
   2:Drivers/Middlewares/measuring_vd_vz.c ****     // Setting the ADC(AD7682) and gain of operational amplifiers(AD8273)
   3:Drivers/Middlewares/measuring_vd_vz.c **** uint16_t AD7682_IN0 = 0x3C49 << 2,          // 0x3C49   // 0x3849
   4:Drivers/Middlewares/measuring_vd_vz.c ****          AD7682_IN1 = 0x3CC9 << 2,          // 0x3CC9   // 0x38C9
   5:Drivers/Middlewares/measuring_vd_vz.c ****          AD7682_IN2 = 0x3D49 << 2,          // 0x3D49   // 0x3949
   6:Drivers/Middlewares/measuring_vd_vz.c ****          AD7682_IN3 = 0x3DC9 << 2;          // 0x3DC9   // 0x39C9   
   7:Drivers/Middlewares/measuring_vd_vz.c ****                     
   8:Drivers/Middlewares/measuring_vd_vz.c **** float   IDOUT = 0.5,                        // coef usilenia po toky
   9:Drivers/Middlewares/measuring_vd_vz.c **** 	    IZOUT = 0.5,  
  10:Drivers/Middlewares/measuring_vd_vz.c **** 	    deltaADC = 0.0000625,               // delta ADC
  11:Drivers/Middlewares/measuring_vd_vz.c **** 	    Resistor = 0.25;                    // tokovi resistor dla zener diod R = 4 Om
  12:Drivers/Middlewares/measuring_vd_vz.c **** 
  13:Drivers/Middlewares/measuring_vd_vz.c **** int   UDOUT = 2,                            // coef usilenia po napryazheniyu
  14:Drivers/Middlewares/measuring_vd_vz.c ****       UZOUT = 2;
  15:Drivers/Middlewares/measuring_vd_vz.c **** 
  16:Drivers/Middlewares/measuring_vd_vz.c **** float currentADC_vd, voltageADC_vd, currentADC_vz, voltageADC_vz;
  17:Drivers/Middlewares/measuring_vd_vz.c **** int AverageADC;
  18:Drivers/Middlewares/measuring_vd_vz.c **** uint16_t out;
  19:Drivers/Middlewares/measuring_vd_vz.c **** uint16_t MassifADC[16];
  20:Drivers/Middlewares/measuring_vd_vz.c **** 
  21:Drivers/Middlewares/measuring_vd_vz.c **** uint16_t* tmp = 0;
  22:Drivers/Middlewares/measuring_vd_vz.c **** 
  23:Drivers/Middlewares/measuring_vd_vz.c **** extern uint16_t usSRegInBuf[];
  24:Drivers/Middlewares/measuring_vd_vz.c **** 
  25:Drivers/Middlewares/measuring_vd_vz.c **** void setConfigADC (uint16_t value) {
  26:Drivers/Middlewares/measuring_vd_vz.c ****     for (int i = 0; i < 16; i++) {
  27:Drivers/Middlewares/measuring_vd_vz.c ****         CNV_OFF;
  28:Drivers/Middlewares/measuring_vd_vz.c **** 	    HAL_Delay(2);
  29:Drivers/Middlewares/measuring_vd_vz.c ****         HAL_SPI_TransmitReceive(&hspi2, (uint8_t*)&value, (uint8_t*)&out, 1, 10);
  30:Drivers/Middlewares/measuring_vd_vz.c ****         HAL_Delay(2);	
  31:Drivers/Middlewares/measuring_vd_vz.c ****         CNV_ON;
ARM GAS  C:\Users\du4\AppData\Local\Temp\ccSTEZbF.s 			page 2


  32:Drivers/Middlewares/measuring_vd_vz.c ****         
  33:Drivers/Middlewares/measuring_vd_vz.c ****         MassifADC[i] = out;
  34:Drivers/Middlewares/measuring_vd_vz.c ****         AverageCalculationADC();
  35:Drivers/Middlewares/measuring_vd_vz.c ****     }
  36:Drivers/Middlewares/measuring_vd_vz.c **** }
  37:Drivers/Middlewares/measuring_vd_vz.c **** 
  38:Drivers/Middlewares/measuring_vd_vz.c **** float AverageCalculationADC (void) {
  28              		.loc 1 38 36 view -0
  29              		.cfi_startproc
  30              		@ args = 0, pretend = 0, frame = 0
  31              		@ frame_needed = 0, uses_anonymous_args = 0
  32 0000 08B5     		push	{r3, lr}
  33              	.LCFI0:
  34              		.cfi_def_cfa_offset 8
  35              		.cfi_offset 3, -8
  36              		.cfi_offset 14, -4
  39:Drivers/Middlewares/measuring_vd_vz.c ****     AverageADC = 0;
  37              		.loc 1 39 5 view .LVU1
  38              		.loc 1 39 16 is_stmt 0 view .LVU2
  39 0002 0E4B     		ldr	r3, .L6
  40 0004 0022     		movs	r2, #0
  41 0006 1A60     		str	r2, [r3]
  40:Drivers/Middlewares/measuring_vd_vz.c ****         for (int j = 4; j < 16; j++) {
  42              		.loc 1 40 9 is_stmt 1 view .LVU3
  43              	.LBB2:
  44              		.loc 1 40 14 view .LVU4
  45              	.LVL0:
  46              		.loc 1 40 18 is_stmt 0 view .LVU5
  47 0008 0423     		movs	r3, #4
  48              	.LVL1:
  49              	.L2:
  50              		.loc 1 40 25 is_stmt 1 discriminator 1 view .LVU6
  51              		.loc 1 40 9 is_stmt 0 discriminator 1 view .LVU7
  52 000a 0F2B     		cmp	r3, #15
  53 000c 08DC     		bgt	.L5
  41:Drivers/Middlewares/measuring_vd_vz.c ****             AverageADC += MassifADC[j];
  54              		.loc 1 41 13 is_stmt 1 discriminator 3 view .LVU8
  55              		.loc 1 41 36 is_stmt 0 discriminator 3 view .LVU9
  56 000e 0C4A     		ldr	r2, .L6+4
  57 0010 32F81300 		ldrh	r0, [r2, r3, lsl #1]
  58              		.loc 1 41 24 discriminator 3 view .LVU10
  59 0014 0949     		ldr	r1, .L6
  60 0016 0A68     		ldr	r2, [r1]
  61 0018 0244     		add	r2, r2, r0
  62 001a 0A60     		str	r2, [r1]
  40:Drivers/Middlewares/measuring_vd_vz.c ****         for (int j = 4; j < 16; j++) {
  63              		.loc 1 40 33 is_stmt 1 discriminator 3 view .LVU11
  40:Drivers/Middlewares/measuring_vd_vz.c ****         for (int j = 4; j < 16; j++) {
  64              		.loc 1 40 34 is_stmt 0 discriminator 3 view .LVU12
  65 001c 0133     		adds	r3, r3, #1
  66              	.LVL2:
  40:Drivers/Middlewares/measuring_vd_vz.c ****         for (int j = 4; j < 16; j++) {
  67              		.loc 1 40 34 discriminator 3 view .LVU13
  68 001e F4E7     		b	.L2
  69              	.L5:
  40:Drivers/Middlewares/measuring_vd_vz.c ****         for (int j = 4; j < 16; j++) {
  70              		.loc 1 40 34 discriminator 3 view .LVU14
ARM GAS  C:\Users\du4\AppData\Local\Temp\ccSTEZbF.s 			page 3


  71              	.LBE2:
  42:Drivers/Middlewares/measuring_vd_vz.c ****         }
  43:Drivers/Middlewares/measuring_vd_vz.c ****     return out = AverageADC / 12;
  72              		.loc 1 43 5 is_stmt 1 view .LVU15
  73              		.loc 1 43 29 is_stmt 0 view .LVU16
  74 0020 064B     		ldr	r3, .L6
  75              	.LVL3:
  76              		.loc 1 43 29 view .LVU17
  77 0022 1B68     		ldr	r3, [r3]
  78 0024 074A     		ldr	r2, .L6+8
  79 0026 82FB0312 		smull	r1, r2, r2, r3
  80 002a D817     		asrs	r0, r3, #31
  81 002c C0EB6200 		rsb	r0, r0, r2, asr #1
  82              		.loc 1 43 16 view .LVU18
  83 0030 80B2     		uxth	r0, r0
  84 0032 054B     		ldr	r3, .L6+12
  85 0034 1880     		strh	r0, [r3]	@ movhi
  86 0036 FFF7FEFF 		bl	__aeabi_ui2f
  87              	.LVL4:
  44:Drivers/Middlewares/measuring_vd_vz.c **** }
  88              		.loc 1 44 1 view .LVU19
  89 003a 08BD     		pop	{r3, pc}
  90              	.L7:
  91              		.align	2
  92              	.L6:
  93 003c 00000000 		.word	AverageADC
  94 0040 00000000 		.word	MassifADC
  95 0044 ABAAAA2A 		.word	715827883
  96 0048 00000000 		.word	out
  97              		.cfi_endproc
  98              	.LFE66:
 100              		.section	.text.setConfigADC,"ax",%progbits
 101              		.align	1
 102              		.global	setConfigADC
 103              		.syntax unified
 104              		.thumb
 105              		.thumb_func
 106              		.fpu softvfp
 108              	setConfigADC:
 109              	.LVL5:
 110              	.LFB65:
  25:Drivers/Middlewares/measuring_vd_vz.c ****     for (int i = 0; i < 16; i++) {
 111              		.loc 1 25 36 is_stmt 1 view -0
 112              		.cfi_startproc
 113              		@ args = 0, pretend = 0, frame = 8
 114              		@ frame_needed = 0, uses_anonymous_args = 0
  25:Drivers/Middlewares/measuring_vd_vz.c ****     for (int i = 0; i < 16; i++) {
 115              		.loc 1 25 36 is_stmt 0 view .LVU21
 116 0000 70B5     		push	{r4, r5, r6, lr}
 117              	.LCFI1:
 118              		.cfi_def_cfa_offset 16
 119              		.cfi_offset 4, -16
 120              		.cfi_offset 5, -12
 121              		.cfi_offset 6, -8
 122              		.cfi_offset 14, -4
 123 0002 84B0     		sub	sp, sp, #16
 124              	.LCFI2:
ARM GAS  C:\Users\du4\AppData\Local\Temp\ccSTEZbF.s 			page 4


 125              		.cfi_def_cfa_offset 32
 126 0004 ADF80E00 		strh	r0, [sp, #14]	@ movhi
  26:Drivers/Middlewares/measuring_vd_vz.c ****         CNV_OFF;
 127              		.loc 1 26 5 is_stmt 1 view .LVU22
 128              	.LBB3:
  26:Drivers/Middlewares/measuring_vd_vz.c ****         CNV_OFF;
 129              		.loc 1 26 10 view .LVU23
 130              	.LVL6:
  26:Drivers/Middlewares/measuring_vd_vz.c ****         CNV_OFF;
 131              		.loc 1 26 14 is_stmt 0 view .LVU24
 132 0008 0024     		movs	r4, #0
 133              	.LVL7:
 134              	.L9:
  26:Drivers/Middlewares/measuring_vd_vz.c ****         CNV_OFF;
 135              		.loc 1 26 21 is_stmt 1 discriminator 1 view .LVU25
  26:Drivers/Middlewares/measuring_vd_vz.c ****         CNV_OFF;
 136              		.loc 1 26 5 is_stmt 0 discriminator 1 view .LVU26
 137 000a 0F2C     		cmp	r4, #15
 138 000c 24DC     		bgt	.L12
  27:Drivers/Middlewares/measuring_vd_vz.c **** 	    HAL_Delay(2);
 139              		.loc 1 27 9 is_stmt 1 discriminator 3 view .LVU27
 140 000e 134E     		ldr	r6, .L13
 141 0010 0022     		movs	r2, #0
 142 0012 4FF48051 		mov	r1, #4096
 143 0016 3046     		mov	r0, r6
 144 0018 FFF7FEFF 		bl	HAL_GPIO_WritePin
 145              	.LVL8:
  28:Drivers/Middlewares/measuring_vd_vz.c ****         HAL_SPI_TransmitReceive(&hspi2, (uint8_t*)&value, (uint8_t*)&out, 1, 10);
 146              		.loc 1 28 6 discriminator 3 view .LVU28
 147 001c 0220     		movs	r0, #2
 148 001e FFF7FEFF 		bl	HAL_Delay
 149              	.LVL9:
  29:Drivers/Middlewares/measuring_vd_vz.c ****         HAL_Delay(2);	
 150              		.loc 1 29 9 discriminator 3 view .LVU29
 151 0022 0F4D     		ldr	r5, .L13+4
 152 0024 0A23     		movs	r3, #10
 153 0026 0093     		str	r3, [sp]
 154 0028 0123     		movs	r3, #1
 155 002a 2A46     		mov	r2, r5
 156 002c 0DF10E01 		add	r1, sp, #14
 157 0030 0C48     		ldr	r0, .L13+8
 158 0032 FFF7FEFF 		bl	HAL_SPI_TransmitReceive
 159              	.LVL10:
  30:Drivers/Middlewares/measuring_vd_vz.c ****         CNV_ON;
 160              		.loc 1 30 9 discriminator 3 view .LVU30
 161 0036 0220     		movs	r0, #2
 162 0038 FFF7FEFF 		bl	HAL_Delay
 163              	.LVL11:
  31:Drivers/Middlewares/measuring_vd_vz.c ****         
 164              		.loc 1 31 9 discriminator 3 view .LVU31
 165 003c 0122     		movs	r2, #1
 166 003e 4FF48051 		mov	r1, #4096
 167 0042 3046     		mov	r0, r6
 168 0044 FFF7FEFF 		bl	HAL_GPIO_WritePin
 169              	.LVL12:
  33:Drivers/Middlewares/measuring_vd_vz.c ****         AverageCalculationADC();
 170              		.loc 1 33 9 discriminator 3 view .LVU32
ARM GAS  C:\Users\du4\AppData\Local\Temp\ccSTEZbF.s 			page 5


  33:Drivers/Middlewares/measuring_vd_vz.c ****         AverageCalculationADC();
 171              		.loc 1 33 22 is_stmt 0 discriminator 3 view .LVU33
 172 0048 2A88     		ldrh	r2, [r5]
 173 004a 074B     		ldr	r3, .L13+12
 174 004c 23F81420 		strh	r2, [r3, r4, lsl #1]	@ movhi
  34:Drivers/Middlewares/measuring_vd_vz.c ****     }
 175              		.loc 1 34 9 is_stmt 1 discriminator 3 view .LVU34
 176 0050 FFF7FEFF 		bl	AverageCalculationADC
 177              	.LVL13:
  26:Drivers/Middlewares/measuring_vd_vz.c ****         CNV_OFF;
 178              		.loc 1 26 29 discriminator 3 view .LVU35
  26:Drivers/Middlewares/measuring_vd_vz.c ****         CNV_OFF;
 179              		.loc 1 26 30 is_stmt 0 discriminator 3 view .LVU36
 180 0054 0134     		adds	r4, r4, #1
 181              	.LVL14:
  26:Drivers/Middlewares/measuring_vd_vz.c ****         CNV_OFF;
 182              		.loc 1 26 30 discriminator 3 view .LVU37
 183 0056 D8E7     		b	.L9
 184              	.L12:
  26:Drivers/Middlewares/measuring_vd_vz.c ****         CNV_OFF;
 185              		.loc 1 26 30 discriminator 3 view .LVU38
 186              	.LBE3:
  36:Drivers/Middlewares/measuring_vd_vz.c **** 
 187              		.loc 1 36 1 view .LVU39
 188 0058 04B0     		add	sp, sp, #16
 189              	.LCFI3:
 190              		.cfi_def_cfa_offset 16
 191              		@ sp needed
 192 005a 70BD     		pop	{r4, r5, r6, pc}
 193              	.LVL15:
 194              	.L14:
  36:Drivers/Middlewares/measuring_vd_vz.c **** 
 195              		.loc 1 36 1 view .LVU40
 196              		.align	2
 197              	.L13:
 198 005c 000C0140 		.word	1073810432
 199 0060 00000000 		.word	out
 200 0064 00000000 		.word	hspi2
 201 0068 00000000 		.word	MassifADC
 202              		.cfi_endproc
 203              	.LFE65:
 205              		.section	.text.dataTransferADC,"ax",%progbits
 206              		.align	1
 207              		.global	dataTransferADC
 208              		.syntax unified
 209              		.thumb
 210              		.thumb_func
 211              		.fpu softvfp
 213              	dataTransferADC:
 214              	.LVL16:
 215              	.LFB67:
  45:Drivers/Middlewares/measuring_vd_vz.c **** 
  46:Drivers/Middlewares/measuring_vd_vz.c **** void dataTransferADC(int registr, float out) {
 216              		.loc 1 46 46 is_stmt 1 view -0
 217              		.cfi_startproc
 218              		@ args = 0, pretend = 0, frame = 8
 219              		@ frame_needed = 0, uses_anonymous_args = 0
ARM GAS  C:\Users\du4\AppData\Local\Temp\ccSTEZbF.s 			page 6


 220              		@ link register save eliminated.
 221              		.loc 1 46 46 is_stmt 0 view .LVU42
 222 0000 82B0     		sub	sp, sp, #8
 223              	.LCFI4:
 224              		.cfi_def_cfa_offset 8
 225 0002 0191     		str	r1, [sp, #4]	@ float
  47:Drivers/Middlewares/measuring_vd_vz.c **** 	tmp = (uint16_t*) &out;
 226              		.loc 1 47 2 is_stmt 1 view .LVU43
 227              		.loc 1 47 6 is_stmt 0 view .LVU44
 228 0004 074B     		ldr	r3, .L17
 229 0006 01AA     		add	r2, sp, #4
 230 0008 1A60     		str	r2, [r3]
  48:Drivers/Middlewares/measuring_vd_vz.c ****     usSRegInBuf[registr] = *tmp;
 231              		.loc 1 48 5 is_stmt 1 view .LVU45
 232              		.loc 1 48 28 is_stmt 0 view .LVU46
 233 000a BDF80420 		ldrh	r2, [sp, #4]
 234              		.loc 1 48 26 view .LVU47
 235 000e 064B     		ldr	r3, .L17+4
 236 0010 23F81020 		strh	r2, [r3, r0, lsl #1]	@ movhi
  49:Drivers/Middlewares/measuring_vd_vz.c ****     usSRegInBuf[registr + 1] = *(tmp + 1);
 237              		.loc 1 49 5 is_stmt 1 view .LVU48
 238              		.loc 1 49 25 is_stmt 0 view .LVU49
 239 0014 0130     		adds	r0, r0, #1
 240              	.LVL17:
 241              		.loc 1 49 30 view .LVU50
 242 0016 BDF80620 		ldrh	r2, [sp, #6]
 243 001a 23F81020 		strh	r2, [r3, r0, lsl #1]	@ movhi
  50:Drivers/Middlewares/measuring_vd_vz.c **** }
 244              		.loc 1 50 1 view .LVU51
 245 001e 02B0     		add	sp, sp, #8
 246              	.LCFI5:
 247              		.cfi_def_cfa_offset 0
 248              		@ sp needed
 249 0020 7047     		bx	lr
 250              	.L18:
 251 0022 00BF     		.align	2
 252              	.L17:
 253 0024 00000000 		.word	.LANCHOR0
 254 0028 00000000 		.word	usSRegInBuf
 255              		.cfi_endproc
 256              	.LFE67:
 258              		.global	__aeabi_i2f
 259              		.global	__aeabi_fmul
 260              		.section	.text.measuringVD,"ax",%progbits
 261              		.align	1
 262              		.global	measuringVD
 263              		.syntax unified
 264              		.thumb
 265              		.thumb_func
 266              		.fpu softvfp
 268              	measuringVD:
 269              	.LFB68:
  51:Drivers/Middlewares/measuring_vd_vz.c **** 
  52:Drivers/Middlewares/measuring_vd_vz.c **** void measuringVD(void) { 
 270              		.loc 1 52 24 is_stmt 1 view -0
 271              		.cfi_startproc
 272              		@ args = 0, pretend = 0, frame = 0
ARM GAS  C:\Users\du4\AppData\Local\Temp\ccSTEZbF.s 			page 7


 273              		@ frame_needed = 0, uses_anonymous_args = 0
 274 0000 70B5     		push	{r4, r5, r6, lr}
 275              	.LCFI6:
 276              		.cfi_def_cfa_offset 16
 277              		.cfi_offset 4, -16
 278              		.cfi_offset 5, -12
 279              		.cfi_offset 6, -8
 280              		.cfi_offset 14, -4
  53:Drivers/Middlewares/measuring_vd_vz.c ****     setConfigADC(AD7682_IN3);
 281              		.loc 1 53 5 view .LVU53
 282 0002 174B     		ldr	r3, .L21
 283 0004 1888     		ldrh	r0, [r3]
 284 0006 FFF7FEFF 		bl	setConfigADC
 285              	.LVL18:
  54:Drivers/Middlewares/measuring_vd_vz.c ****     voltageADC_vd = out * deltaADC  * UDOUT;
 286              		.loc 1 54 5 view .LVU54
 287              		.loc 1 54 25 is_stmt 0 view .LVU55
 288 000a 164E     		ldr	r6, .L21+4
 289 000c 3088     		ldrh	r0, [r6]
 290 000e FFF7FEFF 		bl	__aeabi_i2f
 291              	.LVL19:
 292 0012 154D     		ldr	r5, .L21+8
 293 0014 2968     		ldr	r1, [r5]	@ float
 294 0016 FFF7FEFF 		bl	__aeabi_fmul
 295              	.LVL20:
 296 001a 0446     		mov	r4, r0
 297              		.loc 1 54 37 view .LVU56
 298 001c 134B     		ldr	r3, .L21+12
 299 001e 1868     		ldr	r0, [r3]
 300 0020 FFF7FEFF 		bl	__aeabi_i2f
 301              	.LVL21:
 302 0024 2146     		mov	r1, r4
 303 0026 FFF7FEFF 		bl	__aeabi_fmul
 304              	.LVL22:
 305 002a 0146     		mov	r1, r0
 306              		.loc 1 54 19 view .LVU57
 307 002c 104B     		ldr	r3, .L21+16
 308 002e 1860     		str	r0, [r3]	@ float
  55:Drivers/Middlewares/measuring_vd_vz.c ****     dataTransferADC(0, voltageADC_vd);
 309              		.loc 1 55 5 is_stmt 1 view .LVU58
 310 0030 0020     		movs	r0, #0
 311 0032 FFF7FEFF 		bl	dataTransferADC
 312              	.LVL23:
  56:Drivers/Middlewares/measuring_vd_vz.c ****     
  57:Drivers/Middlewares/measuring_vd_vz.c ****     setConfigADC(AD7682_IN2);  
 313              		.loc 1 57 5 view .LVU59
 314 0036 0F4B     		ldr	r3, .L21+20
 315 0038 1888     		ldrh	r0, [r3]
 316 003a FFF7FEFF 		bl	setConfigADC
 317              	.LVL24:
  58:Drivers/Middlewares/measuring_vd_vz.c ****     currentADC_vd = out * deltaADC * IDOUT; 
 318              		.loc 1 58 5 view .LVU60
 319              		.loc 1 58 25 is_stmt 0 view .LVU61
 320 003e 3088     		ldrh	r0, [r6]
 321 0040 FFF7FEFF 		bl	__aeabi_i2f
 322              	.LVL25:
 323 0044 2968     		ldr	r1, [r5]	@ float
ARM GAS  C:\Users\du4\AppData\Local\Temp\ccSTEZbF.s 			page 8


 324 0046 FFF7FEFF 		bl	__aeabi_fmul
 325              	.LVL26:
 326              		.loc 1 58 36 view .LVU62
 327 004a 0B4B     		ldr	r3, .L21+24
 328 004c 1968     		ldr	r1, [r3]	@ float
 329 004e FFF7FEFF 		bl	__aeabi_fmul
 330              	.LVL27:
 331 0052 0146     		mov	r1, r0
 332              		.loc 1 58 19 view .LVU63
 333 0054 094B     		ldr	r3, .L21+28
 334 0056 1860     		str	r0, [r3]	@ float
  59:Drivers/Middlewares/measuring_vd_vz.c ****     dataTransferADC(2, currentADC_vd);
 335              		.loc 1 59 5 is_stmt 1 view .LVU64
 336 0058 0220     		movs	r0, #2
 337 005a FFF7FEFF 		bl	dataTransferADC
 338              	.LVL28:
  60:Drivers/Middlewares/measuring_vd_vz.c **** }
 339              		.loc 1 60 1 is_stmt 0 view .LVU65
 340 005e 70BD     		pop	{r4, r5, r6, pc}
 341              	.L22:
 342              		.align	2
 343              	.L21:
 344 0060 00000000 		.word	.LANCHOR1
 345 0064 00000000 		.word	out
 346 0068 00000000 		.word	.LANCHOR2
 347 006c 00000000 		.word	.LANCHOR3
 348 0070 00000000 		.word	voltageADC_vd
 349 0074 00000000 		.word	.LANCHOR4
 350 0078 00000000 		.word	.LANCHOR5
 351 007c 00000000 		.word	currentADC_vd
 352              		.cfi_endproc
 353              	.LFE68:
 355              		.section	.text.measuringVZ,"ax",%progbits
 356              		.align	1
 357              		.global	measuringVZ
 358              		.syntax unified
 359              		.thumb
 360              		.thumb_func
 361              		.fpu softvfp
 363              	measuringVZ:
 364              	.LFB69:
  61:Drivers/Middlewares/measuring_vd_vz.c **** 
  62:Drivers/Middlewares/measuring_vd_vz.c **** void measuringVZ(void) {
 365              		.loc 1 62 24 is_stmt 1 view -0
 366              		.cfi_startproc
 367              		@ args = 0, pretend = 0, frame = 0
 368              		@ frame_needed = 0, uses_anonymous_args = 0
 369 0000 70B5     		push	{r4, r5, r6, lr}
 370              	.LCFI7:
 371              		.cfi_def_cfa_offset 16
 372              		.cfi_offset 4, -16
 373              		.cfi_offset 5, -12
 374              		.cfi_offset 6, -8
 375              		.cfi_offset 14, -4
  63:Drivers/Middlewares/measuring_vd_vz.c ****     setConfigADC(AD7682_IN1);
 376              		.loc 1 63 5 view .LVU67
 377 0002 194B     		ldr	r3, .L25
ARM GAS  C:\Users\du4\AppData\Local\Temp\ccSTEZbF.s 			page 9


 378 0004 1888     		ldrh	r0, [r3]
 379 0006 FFF7FEFF 		bl	setConfigADC
 380              	.LVL29:
  64:Drivers/Middlewares/measuring_vd_vz.c ****     voltageADC_vz = out * deltaADC * UZOUT;
 381              		.loc 1 64 5 view .LVU68
 382              		.loc 1 64 25 is_stmt 0 view .LVU69
 383 000a 184E     		ldr	r6, .L25+4
 384 000c 3088     		ldrh	r0, [r6]
 385 000e FFF7FEFF 		bl	__aeabi_i2f
 386              	.LVL30:
 387 0012 174D     		ldr	r5, .L25+8
 388 0014 2968     		ldr	r1, [r5]	@ float
 389 0016 FFF7FEFF 		bl	__aeabi_fmul
 390              	.LVL31:
 391 001a 0446     		mov	r4, r0
 392              		.loc 1 64 36 view .LVU70
 393 001c 154B     		ldr	r3, .L25+12
 394 001e 1868     		ldr	r0, [r3]
 395 0020 FFF7FEFF 		bl	__aeabi_i2f
 396              	.LVL32:
 397 0024 2146     		mov	r1, r4
 398 0026 FFF7FEFF 		bl	__aeabi_fmul
 399              	.LVL33:
 400 002a 0146     		mov	r1, r0
 401              		.loc 1 64 19 view .LVU71
 402 002c 124B     		ldr	r3, .L25+16
 403 002e 1860     		str	r0, [r3]	@ float
  65:Drivers/Middlewares/measuring_vd_vz.c ****     dataTransferADC(4, voltageADC_vz);
 404              		.loc 1 65 5 is_stmt 1 view .LVU72
 405 0030 0420     		movs	r0, #4
 406 0032 FFF7FEFF 		bl	dataTransferADC
 407              	.LVL34:
  66:Drivers/Middlewares/measuring_vd_vz.c **** 
  67:Drivers/Middlewares/measuring_vd_vz.c ****     setConfigADC(AD7682_IN0); 
 408              		.loc 1 67 5 view .LVU73
 409 0036 114B     		ldr	r3, .L25+20
 410 0038 1888     		ldrh	r0, [r3]
 411 003a FFF7FEFF 		bl	setConfigADC
 412              	.LVL35:
  68:Drivers/Middlewares/measuring_vd_vz.c ****     currentADC_vz = out * deltaADC * IZOUT * Resistor;  
 413              		.loc 1 68 5 view .LVU74
 414              		.loc 1 68 25 is_stmt 0 view .LVU75
 415 003e 3088     		ldrh	r0, [r6]
 416 0040 FFF7FEFF 		bl	__aeabi_i2f
 417              	.LVL36:
 418 0044 2968     		ldr	r1, [r5]	@ float
 419 0046 FFF7FEFF 		bl	__aeabi_fmul
 420              	.LVL37:
 421              		.loc 1 68 36 view .LVU76
 422 004a 0D4B     		ldr	r3, .L25+24
 423 004c 1968     		ldr	r1, [r3]	@ float
 424 004e FFF7FEFF 		bl	__aeabi_fmul
 425              	.LVL38:
 426              		.loc 1 68 44 view .LVU77
 427 0052 0C4B     		ldr	r3, .L25+28
 428 0054 1968     		ldr	r1, [r3]	@ float
 429 0056 FFF7FEFF 		bl	__aeabi_fmul
ARM GAS  C:\Users\du4\AppData\Local\Temp\ccSTEZbF.s 			page 10


 430              	.LVL39:
 431 005a 0146     		mov	r1, r0
 432              		.loc 1 68 19 view .LVU78
 433 005c 0A4B     		ldr	r3, .L25+32
 434 005e 1860     		str	r0, [r3]	@ float
  69:Drivers/Middlewares/measuring_vd_vz.c ****     dataTransferADC(6, currentADC_vz);
 435              		.loc 1 69 5 is_stmt 1 view .LVU79
 436 0060 0620     		movs	r0, #6
 437 0062 FFF7FEFF 		bl	dataTransferADC
 438              	.LVL40:
  70:Drivers/Middlewares/measuring_vd_vz.c **** }...
 439              		.loc 1 70 1 is_stmt 0 view .LVU80
 440 0066 70BD     		pop	{r4, r5, r6, pc}
 441              	.L26:
 442              		.align	2
 443              	.L25:
 444 0068 00000000 		.word	.LANCHOR6
 445 006c 00000000 		.word	out
 446 0070 00000000 		.word	.LANCHOR2
 447 0074 00000000 		.word	.LANCHOR7
 448 0078 00000000 		.word	voltageADC_vz
 449 007c 00000000 		.word	.LANCHOR8
 450 0080 00000000 		.word	.LANCHOR9
 451 0084 00000000 		.word	.LANCHOR10
 452 0088 00000000 		.word	currentADC_vz
 453              		.cfi_endproc
 454              	.LFE69:
 456              		.global	tmp
 457              		.comm	MassifADC,32,4
 458              		.comm	out,2,2
 459              		.comm	AverageADC,4,4
 460              		.comm	voltageADC_vz,4,4
 461              		.comm	currentADC_vz,4,4
 462              		.comm	voltageADC_vd,4,4
 463              		.comm	currentADC_vd,4,4
 464              		.global	UZOUT
 465              		.global	UDOUT
 466              		.global	Resistor
 467              		.global	deltaADC
 468              		.global	IZOUT
 469              		.global	IDOUT
 470              		.global	AD7682_IN3
 471              		.global	AD7682_IN2
 472              		.global	AD7682_IN1
 473              		.global	AD7682_IN0
 474              		.comm	eventDiagnostic,4,4
 475              		.comm	eventVZ,4,4
 476              		.comm	eventVD,4,4
 477              		.comm	iz30max,4,4
 478              		.comm	iz30min,4,4
 479              		.comm	id30max,4,4
 480              		.comm	id30min,4,4
 481              		.section	.bss.tmp,"aw",%nobits
 482              		.align	2
 483              		.set	.LANCHOR0,. + 0
 486              	tmp:
 487 0000 00000000 		.space	4
ARM GAS  C:\Users\du4\AppData\Local\Temp\ccSTEZbF.s 			page 11


 488              		.section	.data.AD7682_IN0,"aw"
 489              		.align	1
 490              		.set	.LANCHOR8,. + 0
 493              	AD7682_IN0:
 494 0000 24F1     		.short	-3804
 495              		.section	.data.AD7682_IN1,"aw"
 496              		.align	1
 497              		.set	.LANCHOR6,. + 0
 500              	AD7682_IN1:
 501 0000 24F3     		.short	-3292
 502              		.section	.data.AD7682_IN2,"aw"
 503              		.align	1
 504              		.set	.LANCHOR4,. + 0
 507              	AD7682_IN2:
 508 0000 24F5     		.short	-2780
 509              		.section	.data.AD7682_IN3,"aw"
 510              		.align	1
 511              		.set	.LANCHOR1,. + 0
 514              	AD7682_IN3:
 515 0000 24F7     		.short	-2268
 516              		.section	.data.IDOUT,"aw"
 517              		.align	2
 518              		.set	.LANCHOR5,. + 0
 521              	IDOUT:
 522 0000 0000003F 		.word	1056964608
 523              		.section	.data.IZOUT,"aw"
 524              		.align	2
 525              		.set	.LANCHOR9,. + 0
 528              	IZOUT:
 529 0000 0000003F 		.word	1056964608
 530              		.section	.data.Resistor,"aw"
 531              		.align	2
 532              		.set	.LANCHOR10,. + 0
 535              	Resistor:
 536 0000 0000803E 		.word	1048576000
 537              		.section	.data.UDOUT,"aw"
 538              		.align	2
 539              		.set	.LANCHOR3,. + 0
 542              	UDOUT:
 543 0000 02000000 		.word	2
 544              		.section	.data.UZOUT,"aw"
 545              		.align	2
 546              		.set	.LANCHOR7,. + 0
 549              	UZOUT:
 550 0000 02000000 		.word	2
 551              		.section	.data.deltaADC,"aw"
 552              		.align	2
 553              		.set	.LANCHOR2,. + 0
 556              	deltaADC:
 557 0000 6F128338 		.word	948114031
 558              		.text
 559              	.Letext0:
 560              		.file 2 "c:\\vscodeproject\\software\\arm_gcc\\arm-none-eabi\\include\\machine\\_default_types.h"
 561              		.file 3 "c:\\vscodeproject\\software\\arm_gcc\\arm-none-eabi\\include\\sys\\_stdint.h"
 562              		.file 4 "Drivers/CMSIS/Include/core_cm3.h"
 563              		.file 5 "Drivers/CMSIS/Device/ST/STM32F1xx/Include/system_stm32f1xx.h"
 564              		.file 6 "Drivers/CMSIS/Device/ST/STM32F1xx/Include/stm32f103xb.h"
ARM GAS  C:\Users\du4\AppData\Local\Temp\ccSTEZbF.s 			page 12


 565              		.file 7 "Drivers/STM32F1xx_HAL_Driver/Inc/stm32f1xx_hal_def.h"
 566              		.file 8 "Drivers/STM32F1xx_HAL_Driver/Inc/stm32f1xx_hal_gpio.h"
 567              		.file 9 "Drivers/STM32F1xx_HAL_Driver/Inc/stm32f1xx_hal_dma.h"
 568              		.file 10 "Drivers/STM32F1xx_HAL_Driver/Inc/stm32f1xx_hal_spi.h"
 569              		.file 11 "Drivers/STM32F1xx_HAL_Driver/Inc/stm32f1xx_hal_tim.h"
 570              		.file 12 "Drivers/STM32F1xx_HAL_Driver/Inc/stm32f1xx_hal_uart.h"
 571              		.file 13 "Drivers/STM32F1xx_HAL_Driver/Inc/stm32f1xx_hal.h"
 572              		.file 14 "c:\\vscodeproject\\software\\arm_gcc\\arm-none-eabi\\include\\sys\\lock.h"
 573              		.file 15 "c:\\vscodeproject\\software\\arm_gcc\\arm-none-eabi\\include\\sys\\_types.h"
 574              		.file 16 "c:\\vscodeproject\\software\\arm_gcc\\lib\\gcc\\arm-none-eabi\\9.2.1\\include\\stddef.h"
 575              		.file 17 "c:\\vscodeproject\\software\\arm_gcc\\arm-none-eabi\\include\\sys\\reent.h"
 576              		.file 18 "Inc/spi.h"
 577              		.file 19 "Inc/tim.h"
 578              		.file 20 "Inc/usart.h"
 579              		.file 21 "Drivers/FreeModbus/port/port.h"
 580              		.file 22 "Drivers/FreeModbus/include/mbport.h"
 581              		.file 23 "Drivers/Middlewares/mode.h"
ARM GAS  C:\Users\du4\AppData\Local\Temp\ccSTEZbF.s 			page 13

