ARM GAS  C:\Users\Andre\AppData\Local\Temp\ccCwdCLE.s 			page 1


   1              		.cpu cortex-m3
   2              		.eabi_attribute 20, 1
   3              		.eabi_attribute 21, 1
   4              		.eabi_attribute 23, 3
   5              		.eabi_attribute 24, 1
   6              		.eabi_attribute 25, 1
   7              		.eabi_attribute 26, 1
   8              		.eabi_attribute 30, 1
   9              		.eabi_attribute 34, 1
  10              		.eabi_attribute 18, 4
  11              		.file	"porttimer.c"
  12              		.text
  13              	.Ltext0:
  14              		.cfi_sections	.debug_frame
  15              		.section	.text.xMBPortTimersInit,"ax",%progbits
  16              		.align	1
  17              		.global	xMBPortTimersInit
  18              		.arch armv7-m
  19              		.syntax unified
  20              		.thumb
  21              		.thumb_func
  22              		.fpu softvfp
  24              	xMBPortTimersInit:
  25              	.LVL0:
  26              	.LFB65:
  27              		.file 1 "Drivers/FreeModbus/port/porttimer.c"
   1:Drivers/FreeModbus/port/porttimer.c **** #include "port.h"
   2:Drivers/FreeModbus/port/porttimer.c **** #include "mb.h"
   3:Drivers/FreeModbus/port/porttimer.c **** #include "mbport.h"
   4:Drivers/FreeModbus/port/porttimer.c **** 
   5:Drivers/FreeModbus/port/porttimer.c **** #if MB_SLAVE_RTU_ENABLED > 0 || MB_SLAVE_ASCII_ENABLED > 0
   6:Drivers/FreeModbus/port/porttimer.c **** 
   7:Drivers/FreeModbus/port/porttimer.c **** /* ----------------------- User defenitions ---------------------------------*/
   8:Drivers/FreeModbus/port/porttimer.c **** TIM_HandleTypeDef *tim;
   9:Drivers/FreeModbus/port/porttimer.c **** static uint16_t timeout = 0;
  10:Drivers/FreeModbus/port/porttimer.c **** volatile uint16_t counter = 0;
  11:Drivers/FreeModbus/port/porttimer.c **** 
  12:Drivers/FreeModbus/port/porttimer.c **** extern uint16_t usSRegInBuf[];
  13:Drivers/FreeModbus/port/porttimer.c **** extern uint16_t usSRegHoldBuf[];
  14:Drivers/FreeModbus/port/porttimer.c **** int i = 0;
  15:Drivers/FreeModbus/port/porttimer.c **** 
  16:Drivers/FreeModbus/port/porttimer.c **** 
  17:Drivers/FreeModbus/port/porttimer.c **** /* ----------------------- Start implementation -----------------------------*/
  18:Drivers/FreeModbus/port/porttimer.c **** BOOL xMBPortTimersInit( USHORT usTim1Timerout50us, void *dHTIM )
  19:Drivers/FreeModbus/port/porttimer.c **** {
  28              		.loc 1 19 1 view -0
  29              		.cfi_startproc
  30              		@ args = 0, pretend = 0, frame = 0
  31              		@ frame_needed = 0, uses_anonymous_args = 0
  32              		@ link register save eliminated.
  20:Drivers/FreeModbus/port/porttimer.c **** 	tim = (TIM_HandleTypeDef *)dHTIM;
  33              		.loc 1 20 2 view .LVU1
  34              		.loc 1 20 6 is_stmt 0 view .LVU2
  35 0000 024B     		ldr	r3, .L2
  36 0002 1960     		str	r1, [r3]
  21:Drivers/FreeModbus/port/porttimer.c **** 	timeout = usTim1Timerout50us;
  37              		.loc 1 21 2 is_stmt 1 view .LVU3
ARM GAS  C:\Users\Andre\AppData\Local\Temp\ccCwdCLE.s 			page 2


  38              		.loc 1 21 10 is_stmt 0 view .LVU4
  39 0004 024B     		ldr	r3, .L2+4
  40 0006 1880     		strh	r0, [r3]	@ movhi
  22:Drivers/FreeModbus/port/porttimer.c **** 	return TRUE;
  41              		.loc 1 22 2 is_stmt 1 view .LVU5
  23:Drivers/FreeModbus/port/porttimer.c **** }
  42              		.loc 1 23 1 is_stmt 0 view .LVU6
  43 0008 0120     		movs	r0, #1
  44              	.LVL1:
  45              		.loc 1 23 1 view .LVU7
  46 000a 7047     		bx	lr
  47              	.L3:
  48              		.align	2
  49              	.L2:
  50 000c 00000000 		.word	tim
  51 0010 00000000 		.word	.LANCHOR0
  52              		.cfi_endproc
  53              	.LFE65:
  55              		.section	.text.vMBPortTimersEnable,"ax",%progbits
  56              		.align	1
  57              		.global	vMBPortTimersEnable
  58              		.syntax unified
  59              		.thumb
  60              		.thumb_func
  61              		.fpu softvfp
  63              	vMBPortTimersEnable:
  64              	.LFB66:
  24:Drivers/FreeModbus/port/porttimer.c **** 
  25:Drivers/FreeModbus/port/porttimer.c **** inline void vMBPortTimersEnable(  )
  26:Drivers/FreeModbus/port/porttimer.c **** {
  65              		.loc 1 26 1 is_stmt 1 view -0
  66              		.cfi_startproc
  67              		@ args = 0, pretend = 0, frame = 0
  68              		@ frame_needed = 0, uses_anonymous_args = 0
  69 0000 08B5     		push	{r3, lr}
  70              	.LCFI0:
  71              		.cfi_def_cfa_offset 8
  72              		.cfi_offset 3, -8
  73              		.cfi_offset 14, -4
  27:Drivers/FreeModbus/port/porttimer.c **** 	counter=0;
  74              		.loc 1 27 2 view .LVU9
  75              		.loc 1 27 9 is_stmt 0 view .LVU10
  76 0002 044B     		ldr	r3, .L6
  77 0004 0022     		movs	r2, #0
  78 0006 1A80     		strh	r2, [r3]	@ movhi
  28:Drivers/FreeModbus/port/porttimer.c **** 	HAL_TIM_Base_Start_IT(tim);
  79              		.loc 1 28 2 is_stmt 1 view .LVU11
  80 0008 034B     		ldr	r3, .L6+4
  81 000a 1868     		ldr	r0, [r3]
  82 000c FFF7FEFF 		bl	HAL_TIM_Base_Start_IT
  83              	.LVL2:
  29:Drivers/FreeModbus/port/porttimer.c **** }
  84              		.loc 1 29 1 is_stmt 0 view .LVU12
  85 0010 08BD     		pop	{r3, pc}
  86              	.L7:
  87 0012 00BF     		.align	2
  88              	.L6:
ARM GAS  C:\Users\Andre\AppData\Local\Temp\ccCwdCLE.s 			page 3


  89 0014 00000000 		.word	.LANCHOR1
  90 0018 00000000 		.word	tim
  91              		.cfi_endproc
  92              	.LFE66:
  94              		.section	.text.vMBPortTimersDisable,"ax",%progbits
  95              		.align	1
  96              		.global	vMBPortTimersDisable
  97              		.syntax unified
  98              		.thumb
  99              		.thumb_func
 100              		.fpu softvfp
 102              	vMBPortTimersDisable:
 103              	.LFB67:
  30:Drivers/FreeModbus/port/porttimer.c **** 
  31:Drivers/FreeModbus/port/porttimer.c **** inline void vMBPortTimersDisable(  )
  32:Drivers/FreeModbus/port/porttimer.c **** {
 104              		.loc 1 32 1 is_stmt 1 view -0
 105              		.cfi_startproc
 106              		@ args = 0, pretend = 0, frame = 0
 107              		@ frame_needed = 0, uses_anonymous_args = 0
 108 0000 08B5     		push	{r3, lr}
 109              	.LCFI1:
 110              		.cfi_def_cfa_offset 8
 111              		.cfi_offset 3, -8
 112              		.cfi_offset 14, -4
  33:Drivers/FreeModbus/port/porttimer.c **** 	HAL_TIM_Base_Stop_IT(tim);
 113              		.loc 1 33 2 view .LVU14
 114 0002 024B     		ldr	r3, .L10
 115 0004 1868     		ldr	r0, [r3]
 116 0006 FFF7FEFF 		bl	HAL_TIM_Base_Stop_IT
 117              	.LVL3:
  34:Drivers/FreeModbus/port/porttimer.c **** }
 118              		.loc 1 34 1 is_stmt 0 view .LVU15
 119 000a 08BD     		pop	{r3, pc}
 120              	.L11:
 121              		.align	2
 122              	.L10:
 123 000c 00000000 		.word	tim
 124              		.cfi_endproc
 125              	.LFE67:
 127              		.section	.text.HAL_TIM_PeriodElapsedCallback,"ax",%progbits
 128              		.align	1
 129              		.global	HAL_TIM_PeriodElapsedCallback
 130              		.syntax unified
 131              		.thumb
 132              		.thumb_func
 133              		.fpu softvfp
 135              	HAL_TIM_PeriodElapsedCallback:
 136              	.LVL4:
 137              	.LFB68:
  35:Drivers/FreeModbus/port/porttimer.c **** 
  36:Drivers/FreeModbus/port/porttimer.c **** char var ;
  37:Drivers/FreeModbus/port/porttimer.c **** void HAL_TIM_PeriodElapsedCallback(TIM_HandleTypeDef *htim)
  38:Drivers/FreeModbus/port/porttimer.c **** {
 138              		.loc 1 38 1 is_stmt 1 view -0
 139              		.cfi_startproc
 140              		@ args = 0, pretend = 0, frame = 0
ARM GAS  C:\Users\Andre\AppData\Local\Temp\ccCwdCLE.s 			page 4


 141              		@ frame_needed = 0, uses_anonymous_args = 0
 142              		.loc 1 38 1 is_stmt 0 view .LVU17
 143 0000 08B5     		push	{r3, lr}
 144              	.LCFI2:
 145              		.cfi_def_cfa_offset 8
 146              		.cfi_offset 3, -8
 147              		.cfi_offset 14, -4
  39:Drivers/FreeModbus/port/porttimer.c **** 	if (htim->Instance == TIM4)
 148              		.loc 1 39 2 is_stmt 1 view .LVU18
 149              		.loc 1 39 10 is_stmt 0 view .LVU19
 150 0002 0268     		ldr	r2, [r0]
 151              		.loc 1 39 5 view .LVU20
 152 0004 084B     		ldr	r3, .L16
 153 0006 9A42     		cmp	r2, r3
 154 0008 00D0     		beq	.L15
 155              	.LVL5:
 156              	.L12:
  40:Drivers/FreeModbus/port/porttimer.c **** 	{
  41:Drivers/FreeModbus/port/porttimer.c **** 		if ((++counter) >= timeout)
  42:Drivers/FreeModbus/port/porttimer.c **** 			pxMBPortCBTimerExpired();
  43:Drivers/FreeModbus/port/porttimer.c **** 	}
  44:Drivers/FreeModbus/port/porttimer.c **** 	
  45:Drivers/FreeModbus/port/porttimer.c **** }
 157              		.loc 1 45 1 view .LVU21
 158 000a 08BD     		pop	{r3, pc}
 159              	.LVL6:
 160              	.L15:
  41:Drivers/FreeModbus/port/porttimer.c **** 			pxMBPortCBTimerExpired();
 161              		.loc 1 41 3 is_stmt 1 view .LVU22
  41:Drivers/FreeModbus/port/porttimer.c **** 			pxMBPortCBTimerExpired();
 162              		.loc 1 41 8 is_stmt 0 view .LVU23
 163 000c 074A     		ldr	r2, .L16+4
 164 000e 1388     		ldrh	r3, [r2]
 165 0010 9BB2     		uxth	r3, r3
 166 0012 0133     		adds	r3, r3, #1
 167 0014 9BB2     		uxth	r3, r3
  41:Drivers/FreeModbus/port/porttimer.c **** 			pxMBPortCBTimerExpired();
 168              		.loc 1 41 6 view .LVU24
 169 0016 1380     		strh	r3, [r2]	@ movhi
  41:Drivers/FreeModbus/port/porttimer.c **** 			pxMBPortCBTimerExpired();
 170              		.loc 1 41 19 view .LVU25
 171 0018 054A     		ldr	r2, .L16+8
 172 001a 1288     		ldrh	r2, [r2]
  41:Drivers/FreeModbus/port/porttimer.c **** 			pxMBPortCBTimerExpired();
 173              		.loc 1 41 6 view .LVU26
 174 001c 9342     		cmp	r3, r2
 175 001e F4D3     		bcc	.L12
  42:Drivers/FreeModbus/port/porttimer.c **** 	}
 176              		.loc 1 42 4 is_stmt 1 view .LVU27
 177 0020 044B     		ldr	r3, .L16+12
 178 0022 1B68     		ldr	r3, [r3]
 179 0024 9847     		blx	r3
 180              	.LVL7:
 181              		.loc 1 45 1 is_stmt 0 view .LVU28
 182 0026 F0E7     		b	.L12
 183              	.L17:
 184              		.align	2
ARM GAS  C:\Users\Andre\AppData\Local\Temp\ccCwdCLE.s 			page 5


 185              	.L16:
 186 0028 00080040 		.word	1073743872
 187 002c 00000000 		.word	.LANCHOR1
 188 0030 00000000 		.word	.LANCHOR0
 189 0034 00000000 		.word	pxMBPortCBTimerExpired
 190              		.cfi_endproc
 191              	.LFE68:
 193              		.comm	var,1,1
 194              		.global	i
 195              		.global	counter
 196              		.comm	tim,4,4
 197              		.section	.bss.counter,"aw",%nobits
 198              		.align	1
 199              		.set	.LANCHOR1,. + 0
 202              	counter:
 203 0000 0000     		.space	2
 204              		.section	.bss.i,"aw",%nobits
 205              		.align	2
 208              	i:
 209 0000 00000000 		.space	4
 210              		.section	.bss.timeout,"aw",%nobits
 211              		.align	1
 212              		.set	.LANCHOR0,. + 0
 215              	timeout:
 216 0000 0000     		.space	2
 217              		.text
 218              	.Letext0:
 219              		.file 2 "c:\\vscodeproject\\software\\arm_gcc\\arm-none-eabi\\include\\machine\\_default_types.h"
 220              		.file 3 "c:\\vscodeproject\\software\\arm_gcc\\arm-none-eabi\\include\\sys\\_stdint.h"
 221              		.file 4 "Drivers/CMSIS/Include/core_cm3.h"
 222              		.file 5 "Drivers/CMSIS/Device/ST/STM32F1xx/Include/system_stm32f1xx.h"
 223              		.file 6 "Drivers/CMSIS/Device/ST/STM32F1xx/Include/stm32f103xb.h"
 224              		.file 7 "Drivers/STM32F1xx_HAL_Driver/Inc/stm32f1xx_hal_def.h"
 225              		.file 8 "Drivers/STM32F1xx_HAL_Driver/Inc/stm32f1xx_hal_dma.h"
 226              		.file 9 "Drivers/STM32F1xx_HAL_Driver/Inc/stm32f1xx_hal_spi.h"
 227              		.file 10 "Drivers/STM32F1xx_HAL_Driver/Inc/stm32f1xx_hal_tim.h"
 228              		.file 11 "Drivers/STM32F1xx_HAL_Driver/Inc/stm32f1xx_hal_uart.h"
 229              		.file 12 "Drivers/STM32F1xx_HAL_Driver/Inc/stm32f1xx_hal.h"
 230              		.file 13 "c:\\vscodeproject\\software\\arm_gcc\\arm-none-eabi\\include\\sys\\lock.h"
 231              		.file 14 "c:\\vscodeproject\\software\\arm_gcc\\arm-none-eabi\\include\\sys\\_types.h"
 232              		.file 15 "c:\\vscodeproject\\software\\arm_gcc\\lib\\gcc\\arm-none-eabi\\9.2.1\\include\\stddef.h"
 233              		.file 16 "c:\\vscodeproject\\software\\arm_gcc\\arm-none-eabi\\include\\sys\\reent.h"
 234              		.file 17 "Inc/spi.h"
 235              		.file 18 "Inc/tim.h"
 236              		.file 19 "Inc/usart.h"
 237              		.file 20 "Drivers/FreeModbus/port/port.h"
 238              		.file 21 "Drivers/FreeModbus/include/mbport.h"
ARM GAS  C:\Users\Andre\AppData\Local\Temp\ccCwdCLE.s 			page 6

